ARM GAS  /run/user/1000/cc4cbKPI.s 			page 1


   1              		.cpu cortex-m3
   2              		.arch armv7-m
   3              		.fpu softvfp
   4              		.eabi_attribute 20, 1
   5              		.eabi_attribute 21, 1
   6              		.eabi_attribute 23, 3
   7              		.eabi_attribute 24, 1
   8              		.eabi_attribute 25, 1
   9              		.eabi_attribute 26, 1
  10              		.eabi_attribute 30, 1
  11              		.eabi_attribute 34, 1
  12              		.eabi_attribute 18, 4
  13              		.file	"main.c"
  14              		.text
  15              	.Ltext0:
  16              		.cfi_sections	.debug_frame
  17              		.file 1 "Core/Src/main.c"
  18              		.section	.text.Error_Handler,"ax",%progbits
  19              		.align	1
  20              		.global	Error_Handler
  21              		.syntax unified
  22              		.thumb
  23              		.thumb_func
  25              	Error_Handler:
  26              	.LFB70:
   1:Core/Src/main.c **** /* USER CODE BEGIN Header */
   2:Core/Src/main.c **** /**
   3:Core/Src/main.c ****   ******************************************************************************
   4:Core/Src/main.c ****   * @file           : main.c
   5:Core/Src/main.c ****   * @brief          : Main program body
   6:Core/Src/main.c ****   ******************************************************************************
   7:Core/Src/main.c ****   * @attention
   8:Core/Src/main.c ****   *
   9:Core/Src/main.c ****   * Copyright (c) 2023 STMicroelectronics.
  10:Core/Src/main.c ****   * All rights reserved.
  11:Core/Src/main.c ****   *
  12:Core/Src/main.c ****   * This software is licensed under terms that can be found in the LICENSE file
  13:Core/Src/main.c ****   * in the root directory of this software component.
  14:Core/Src/main.c ****   * If no LICENSE file comes with this software, it is provided AS-IS.
  15:Core/Src/main.c ****   *
  16:Core/Src/main.c ****   ******************************************************************************
  17:Core/Src/main.c ****   */
  18:Core/Src/main.c **** /* USER CODE END Header */
  19:Core/Src/main.c **** /* Includes ------------------------------------------------------------------*/
  20:Core/Src/main.c **** #include "main.h"
  21:Core/Src/main.c **** #include "usb_device.h"
  22:Core/Src/main.c **** #include "gpio.h"
  23:Core/Src/main.c **** 
  24:Core/Src/main.c **** /* Private includes ----------------------------------------------------------*/
  25:Core/Src/main.c **** /* USER CODE BEGIN Includes */
  26:Core/Src/main.c **** #include "usbd_hid.h"
  27:Core/Src/main.c **** /* USER CODE END Includes */
  28:Core/Src/main.c **** 
  29:Core/Src/main.c **** /* Private typedef -----------------------------------------------------------*/
  30:Core/Src/main.c **** /* USER CODE BEGIN PTD */
  31:Core/Src/main.c **** 
  32:Core/Src/main.c **** /* USER CODE END PTD */
ARM GAS  /run/user/1000/cc4cbKPI.s 			page 2


  33:Core/Src/main.c **** 
  34:Core/Src/main.c **** /* Private define ------------------------------------------------------------*/
  35:Core/Src/main.c **** /* USER CODE BEGIN PD */
  36:Core/Src/main.c **** 
  37:Core/Src/main.c **** /* USER CODE END PD */
  38:Core/Src/main.c **** 
  39:Core/Src/main.c **** /* Private macro -------------------------------------------------------------*/
  40:Core/Src/main.c **** /* USER CODE BEGIN PM */
  41:Core/Src/main.c **** 
  42:Core/Src/main.c **** /* USER CODE END PM */
  43:Core/Src/main.c **** 
  44:Core/Src/main.c **** /* Private variables ---------------------------------------------------------*/
  45:Core/Src/main.c **** 
  46:Core/Src/main.c **** /* USER CODE BEGIN PV */
  47:Core/Src/main.c **** extern USBD_HandleTypeDef hUsbDeviceFS;
  48:Core/Src/main.c **** /* USER CODE END PV */
  49:Core/Src/main.c **** 
  50:Core/Src/main.c **** /* Private function prototypes -----------------------------------------------*/
  51:Core/Src/main.c **** void SystemClock_Config(void);
  52:Core/Src/main.c **** /* USER CODE BEGIN PFP */
  53:Core/Src/main.c **** 
  54:Core/Src/main.c **** /* USER CODE END PFP */
  55:Core/Src/main.c **** 
  56:Core/Src/main.c **** /* Private user code ---------------------------------------------------------*/
  57:Core/Src/main.c **** /* USER CODE BEGIN 0 */
  58:Core/Src/main.c **** 
  59:Core/Src/main.c **** /* USER CODE END 0 */
  60:Core/Src/main.c **** 
  61:Core/Src/main.c **** /**
  62:Core/Src/main.c ****   * @brief  The application entry point.
  63:Core/Src/main.c ****   * @retval int
  64:Core/Src/main.c ****   */
  65:Core/Src/main.c **** int main(void)
  66:Core/Src/main.c **** {
  67:Core/Src/main.c **** 	/* USER CODE BEGIN 1 */
  68:Core/Src/main.c **** 
  69:Core/Src/main.c **** 	/* USER CODE END 1 */
  70:Core/Src/main.c **** 
  71:Core/Src/main.c **** 	/* MCU Configuration--------------------------------------------------------*/
  72:Core/Src/main.c **** 
  73:Core/Src/main.c **** 	/* Reset of all peripherals, Initializes the Flash interface and the Systick. */
  74:Core/Src/main.c **** 	HAL_Init();
  75:Core/Src/main.c **** 
  76:Core/Src/main.c **** 	/* USER CODE BEGIN Init */
  77:Core/Src/main.c **** 
  78:Core/Src/main.c **** 	/* USER CODE END Init */
  79:Core/Src/main.c **** 
  80:Core/Src/main.c **** 	/* Configure the system clock */
  81:Core/Src/main.c **** 	SystemClock_Config();
  82:Core/Src/main.c **** 
  83:Core/Src/main.c **** 	/* USER CODE BEGIN SysInit */
  84:Core/Src/main.c **** 
  85:Core/Src/main.c **** 	/* USER CODE END SysInit */
  86:Core/Src/main.c **** 
  87:Core/Src/main.c **** 	/* Initialize all configured peripherals */
  88:Core/Src/main.c **** 	MX_GPIO_Init();
  89:Core/Src/main.c **** 	MX_USB_DEVICE_Init();
ARM GAS  /run/user/1000/cc4cbKPI.s 			page 3


  90:Core/Src/main.c **** 	/* USER CODE BEGIN 2 */
  91:Core/Src/main.c **** uint8_t data[206][HID_EPIN_SIZE] = {
  92:Core/Src/main.c **** {0x20, 0x00, 0x6f, 0x2c, 0x00, 0x00, 0x00, 0x00, 0x00, 0x00, 0x40, 0x01, 0x87, 0x02, 0xd9, 0x02, 0x
  93:Core/Src/main.c **** {0x20, 0x00, 0x70, 0x2c, 0x00, 0x00, 0x00, 0x00, 0x00, 0x00, 0xd7, 0x00, 0x25, 0x02, 0xd9, 0x02, 0x
  94:Core/Src/main.c **** {0x20, 0x00, 0x71, 0x2c, 0x00, 0x00, 0x00, 0x00, 0x00, 0x00, 0x83, 0x00, 0xd1, 0x01, 0xd9, 0x02, 0x
  95:Core/Src/main.c **** {0x20, 0x00, 0x72, 0x2c, 0x00, 0x00, 0x00, 0x00, 0x00, 0x00, 0x35, 0x00, 0x83, 0x01, 0xd9, 0x02, 0x
  96:Core/Src/main.c **** {0x20, 0x00, 0x73, 0x2c, 0x00, 0x00, 0x00, 0x00, 0x00, 0x00, 0xf8, 0xff, 0x0f, 0x01, 0xd9, 0x02, 0x
  97:Core/Src/main.c **** {0x20, 0x00, 0x74, 0x2c, 0x00, 0x00, 0x00, 0x00, 0x00, 0x00, 0xbe, 0xff, 0x86, 0x00, 0xd9, 0x02, 0x
  98:Core/Src/main.c **** {0x20, 0x00, 0x75, 0x2c, 0x00, 0x00, 0x00, 0x00, 0x00, 0x00, 0x97, 0xff, 0xf6, 0xff, 0xd9, 0x02, 0x
  99:Core/Src/main.c **** {0x20, 0x00, 0x76, 0x2c, 0x00, 0x00, 0x00, 0x00, 0x00, 0x00, 0x97, 0xff, 0x61, 0xff, 0xd9, 0x02, 0x
 100:Core/Src/main.c **** {0x20, 0x00, 0x77, 0x2c, 0x00, 0x00, 0x00, 0x00, 0x00, 0x00, 0x3a, 0xff, 0xe0, 0xfe, 0xd9, 0x02, 0x
 101:Core/Src/main.c **** {0x20, 0x00, 0x78, 0x2c, 0x00, 0x00, 0x00, 0x00, 0x00, 0x00, 0xfe, 0xfe, 0x75, 0xfe, 0xd9, 0x02, 0x
 102:Core/Src/main.c **** {0x20, 0x00, 0x79, 0x2c, 0x00, 0x00, 0x00, 0x00, 0x00, 0x00, 0xc9, 0xfe, 0x1b, 0xfe, 0xd9, 0x02, 0x
 103:Core/Src/main.c **** {0x20, 0x00, 0x7a, 0x2c, 0x00, 0x00, 0x00, 0x00, 0x00, 0x00, 0xc9, 0xfe, 0xce, 0xfd, 0xd9, 0x02, 0x
 104:Core/Src/main.c **** {0x20, 0x00, 0x7b, 0x2c, 0x00, 0x00, 0x00, 0x00, 0x00, 0x00, 0x7d, 0xfe, 0x95, 0xfd, 0xd9, 0x02, 0x
 105:Core/Src/main.c **** {0x20, 0x00, 0x7c, 0x2c, 0x00, 0x00, 0x00, 0x00, 0x00, 0x00, 0x62, 0xfe, 0x63, 0xfd, 0xd9, 0x02, 0x
 106:Core/Src/main.c **** {0x20, 0x00, 0x7d, 0x2c, 0x00, 0x00, 0x00, 0x00, 0x00, 0x00, 0x62, 0xfe, 0x24, 0xfd, 0xd9, 0x02, 0x
 107:Core/Src/main.c **** {0x20, 0x00, 0x7e, 0x2c, 0x00, 0x00, 0x00, 0x00, 0x00, 0x00, 0x62, 0xfe, 0xfb, 0xfc, 0xd9, 0x02, 0x
 108:Core/Src/main.c **** {0x20, 0x00, 0x7f, 0x2c, 0x00, 0x00, 0x00, 0x00, 0x00, 0x00, 0x62, 0xfe, 0xc3, 0xfc, 0xd9, 0x02, 0x
 109:Core/Src/main.c **** {0x20, 0x00, 0x80, 0x2c, 0x00, 0x00, 0x00, 0x00, 0x00, 0x00, 0x62, 0xfe, 0x99, 0xfc, 0xd9, 0x02, 0x
 110:Core/Src/main.c **** {0x20, 0x00, 0x81, 0x2c, 0x00, 0x00, 0x00, 0x00, 0x00, 0x00, 0x1d, 0xfe, 0x99, 0xfc, 0xd9, 0x02, 0x
 111:Core/Src/main.c **** {0x20, 0x00, 0x82, 0x2c, 0x00, 0x00, 0x00, 0x00, 0x00, 0x00, 0x1d, 0xfe, 0x57, 0xfc, 0xd9, 0x02, 0x
 112:Core/Src/main.c **** {0x20, 0x00, 0x83, 0x2c, 0x00, 0x00, 0x00, 0x00, 0x00, 0x00, 0xfd, 0xfd, 0x38, 0xfc, 0xd9, 0x02, 0x
 113:Core/Src/main.c **** {0x20, 0x00, 0x84, 0x2c, 0x00, 0x00, 0x00, 0x00, 0x00, 0x00, 0xfd, 0xfd, 0xf1, 0xfb, 0xd9, 0x02, 0x
 114:Core/Src/main.c **** {0x20, 0x00, 0x85, 0x2c, 0x00, 0x00, 0x00, 0x00, 0x00, 0x00, 0xfd, 0xfd, 0xc7, 0xfb, 0xd9, 0x02, 0x
 115:Core/Src/main.c **** {0x20, 0x00, 0x86, 0x2c, 0x00, 0x00, 0x00, 0x00, 0x00, 0x00, 0xfd, 0xfd, 0x8c, 0xfb, 0xd9, 0x02, 0x
 116:Core/Src/main.c **** {0x20, 0x00, 0x87, 0x2c, 0x00, 0x00, 0x00, 0x00, 0x00, 0x00, 0xfd, 0xfd, 0x64, 0xfb, 0xd9, 0x02, 0x
 117:Core/Src/main.c **** {0x20, 0x00, 0x88, 0x2c, 0x00, 0x00, 0x00, 0x00, 0x00, 0x00, 0xfd, 0xfd, 0x27, 0xfb, 0xd9, 0x02, 0x
 118:Core/Src/main.c **** {0x20, 0x00, 0x89, 0x2c, 0x00, 0x00, 0x00, 0x00, 0x00, 0x00, 0xfd, 0xfd, 0x03, 0xfb, 0xd9, 0x02, 0x
 119:Core/Src/main.c **** {0x20, 0x00, 0x8a, 0x2c, 0x00, 0x00, 0x00, 0x00, 0x00, 0x00, 0xfd, 0xfd, 0xc6, 0xfa, 0xd9, 0x02, 0x
 120:Core/Src/main.c **** {0x20, 0x00, 0x8b, 0x2c, 0x00, 0x00, 0x00, 0x00, 0x00, 0x00, 0xfd, 0xfd, 0x6b, 0xfb, 0xd9, 0x02, 0x
 121:Core/Src/main.c **** {0x20, 0x00, 0x8c, 0x2c, 0x00, 0x00, 0x00, 0x00, 0x00, 0x00, 0xfd, 0xfd, 0x80, 0xfb, 0xd9, 0x02, 0x
 122:Core/Src/main.c **** {0x20, 0x00, 0x8d, 0x2c, 0x00, 0x00, 0x00, 0x00, 0x00, 0x00, 0xfd, 0xfd, 0xcc, 0xfb, 0xd9, 0x02, 0x
 123:Core/Src/main.c **** {0x20, 0x00, 0x8e, 0x2c, 0x00, 0x00, 0x00, 0x00, 0x00, 0x00, 0xfd, 0xfd, 0xe2, 0xfb, 0xd9, 0x02, 0x
 124:Core/Src/main.c **** {0x20, 0x00, 0x8f, 0x2c, 0x20, 0x00, 0x00, 0x00, 0x00, 0x00, 0xfd, 0xfd, 0x30, 0xfc, 0xd9, 0x02, 0x
 125:Core/Src/main.c **** {0x20, 0x00, 0x90, 0x2c, 0x00, 0x00, 0x00, 0x00, 0x00, 0x00, 0xfd, 0xfd, 0x30, 0xfc, 0xd9, 0x02, 0x
 126:Core/Src/main.c **** {0x20, 0x00, 0x91, 0x2c, 0x00, 0x00, 0x00, 0x00, 0x00, 0x00, 0xfd, 0xfd, 0x4e, 0xfc, 0xd9, 0x02, 0x
 127:Core/Src/main.c **** {0x20, 0x00, 0x92, 0x2c, 0x00, 0x00, 0x00, 0x00, 0x00, 0x00, 0xfd, 0xfd, 0xc5, 0xfc, 0xd9, 0x02, 0x
 128:Core/Src/main.c **** {0x20, 0x00, 0x93, 0x2c, 0x00, 0x00, 0x00, 0x00, 0x00, 0x00, 0xfd, 0xfd, 0x0d, 0xfd, 0xd9, 0x02, 0x
 129:Core/Src/main.c **** {0x20, 0x00, 0x94, 0x2c, 0x00, 0x00, 0x00, 0x00, 0x00, 0x00, 0xfd, 0xfd, 0x5c, 0xfd, 0xd9, 0x02, 0x
 130:Core/Src/main.c **** {0x20, 0x00, 0x95, 0x2c, 0x00, 0x00, 0x00, 0x00, 0x00, 0x00, 0xfd, 0xfd, 0xa5, 0xfd, 0xd9, 0x02, 0x
 131:Core/Src/main.c **** {0x20, 0x00, 0x96, 0x2c, 0x00, 0x00, 0x00, 0x00, 0x00, 0x00, 0xfd, 0xfd, 0xf4, 0xfd, 0xd9, 0x02, 0x
 132:Core/Src/main.c **** {0x20, 0x00, 0x97, 0x2c, 0x00, 0x00, 0x00, 0x00, 0x00, 0x00, 0xfd, 0xfd, 0x49, 0xfe, 0xd9, 0x02, 0x
 133:Core/Src/main.c **** {0x20, 0x00, 0x98, 0x2c, 0x00, 0x00, 0x00, 0x00, 0x00, 0x00, 0xfd, 0xfd, 0x8c, 0xfe, 0xd9, 0x02, 0x
 134:Core/Src/main.c **** {0x20, 0x00, 0x99, 0x2c, 0x00, 0x00, 0x00, 0x00, 0x00, 0x00, 0xfd, 0xfd, 0xc2, 0xfe, 0xd9, 0x02, 0x
 135:Core/Src/main.c **** {0x20, 0x00, 0x9a, 0x2c, 0x00, 0x00, 0x00, 0x00, 0x00, 0x00, 0xfd, 0xfd, 0xed, 0xfe, 0xd9, 0x02, 0x
 136:Core/Src/main.c **** {0x20, 0x00, 0x9b, 0x2c, 0x00, 0x00, 0x00, 0x00, 0x00, 0x00, 0xfd, 0xfd, 0x26, 0xff, 0xd9, 0x02, 0x
 137:Core/Src/main.c **** {0x20, 0x00, 0x9c, 0x2c, 0x00, 0x00, 0x00, 0x00, 0x00, 0x00, 0xfd, 0xfd, 0x5a, 0xff, 0xd9, 0x02, 0x
 138:Core/Src/main.c **** {0x20, 0x00, 0x9d, 0x2c, 0x00, 0x00, 0x00, 0x00, 0x00, 0x00, 0xfd, 0xfd, 0xc2, 0xfe, 0xd9, 0x02, 0x
 139:Core/Src/main.c **** {0x20, 0x00, 0x9e, 0x2c, 0x00, 0x00, 0x00, 0x00, 0x00, 0x00, 0xfd, 0xfd, 0xb9, 0xfe, 0xd9, 0x02, 0x
 140:Core/Src/main.c **** {0x20, 0x00, 0x9f, 0x2c, 0x00, 0x00, 0x00, 0x00, 0x00, 0x00, 0xfd, 0xfc, 0xb9, 0xfe, 0xd9, 0x02, 0x
 141:Core/Src/main.c **** {0x20, 0x00, 0xa0, 0x2c, 0x00, 0x00, 0x00, 0x00, 0x00, 0x00, 0x7e, 0xfb, 0xb9, 0xfe, 0xd9, 0x02, 0x
 142:Core/Src/main.c **** {0x20, 0x00, 0xa1, 0x2c, 0x00, 0x00, 0x00, 0x00, 0x00, 0x00, 0xe2, 0xf6, 0x89, 0xff, 0xd9, 0x02, 0x
 143:Core/Src/main.c **** {0x20, 0x00, 0xa2, 0x2c, 0x00, 0x00, 0x00, 0x00, 0x00, 0x00, 0x0e, 0xc4, 0xc6, 0x00, 0xd9, 0x02, 0x
 144:Core/Src/main.c **** {0x20, 0x00, 0xa3, 0x2c, 0x00, 0x00, 0x00, 0x00, 0x00, 0x00, 0x6d, 0x96, 0x5c, 0x02, 0xd9, 0x02, 0x
 145:Core/Src/main.c **** {0x20, 0x00, 0xa4, 0x2c, 0x00, 0x00, 0x00, 0x00, 0x00, 0x00, 0x00, 0x80, 0x47, 0x04, 0xd9, 0x02, 0x
 146:Core/Src/main.c **** {0x20, 0x00, 0xa5, 0x2c, 0x00, 0x00, 0x00, 0x00, 0x00, 0x00, 0x00, 0x80, 0xaf, 0x05, 0xd9, 0x02, 0x
ARM GAS  /run/user/1000/cc4cbKPI.s 			page 4


 147:Core/Src/main.c **** {0x20, 0x00, 0xa6, 0x2c, 0x00, 0x00, 0x00, 0x00, 0x00, 0x00, 0x00, 0x80, 0x97, 0x06, 0xd9, 0x02, 0x
 148:Core/Src/main.c **** {0x20, 0x00, 0xa7, 0x2c, 0x00, 0x00, 0x00, 0x00, 0x00, 0x00, 0x00, 0x80, 0xd2, 0x06, 0xd9, 0x02, 0x
 149:Core/Src/main.c **** {0x20, 0x00, 0xa8, 0x2c, 0x00, 0x00, 0x00, 0x00, 0x00, 0x00, 0x00, 0x80, 0xa4, 0x05, 0xd9, 0x02, 0x
 150:Core/Src/main.c **** {0x20, 0x00, 0xa9, 0x2c, 0x00, 0x00, 0x00, 0x00, 0x00, 0x00, 0x00, 0x80, 0xe6, 0x04, 0xd9, 0x02, 0x
 151:Core/Src/main.c **** {0x20, 0x00, 0xaa, 0x2c, 0x00, 0x00, 0x00, 0x00, 0x00, 0x00, 0x00, 0x80, 0x48, 0x04, 0xd9, 0x02, 0x
 152:Core/Src/main.c **** {0x20, 0x00, 0xab, 0x2c, 0x00, 0x00, 0x00, 0x00, 0x00, 0x00, 0x00, 0x80, 0xc4, 0x03, 0xd9, 0x02, 0x
 153:Core/Src/main.c **** {0x20, 0x00, 0xac, 0x2c, 0x00, 0x00, 0x00, 0x00, 0x00, 0x00, 0x00, 0x80, 0x5b, 0x03, 0xd9, 0x02, 0x
 154:Core/Src/main.c **** {0x20, 0x00, 0xad, 0x2c, 0x00, 0x00, 0x00, 0x00, 0x00, 0x00, 0x00, 0x80, 0x07, 0x03, 0xd9, 0x02, 0x
 155:Core/Src/main.c **** {0x20, 0x00, 0xae, 0x2c, 0x00, 0x00, 0x00, 0x00, 0x00, 0x00, 0x00, 0x80, 0xbe, 0x02, 0xd9, 0x02, 0x
 156:Core/Src/main.c **** {0x20, 0x00, 0xaf, 0x2c, 0x00, 0x00, 0x00, 0x00, 0x00, 0x00, 0x00, 0x80, 0x79, 0x02, 0xd9, 0x02, 0x
 157:Core/Src/main.c **** {0x20, 0x00, 0xb0, 0x2c, 0x00, 0x00, 0x00, 0x00, 0x00, 0x00, 0x00, 0x80, 0xe9, 0x01, 0xd9, 0x02, 0x
 158:Core/Src/main.c **** {0x20, 0x00, 0xb1, 0x2c, 0x00, 0x00, 0x00, 0x00, 0x00, 0x00, 0x00, 0x80, 0x71, 0x01, 0xd9, 0x02, 0x
 159:Core/Src/main.c **** {0x20, 0x00, 0xb2, 0x2c, 0x00, 0x00, 0x00, 0x00, 0x00, 0x00, 0x00, 0x80, 0x0b, 0x01, 0xd9, 0x02, 0x
 160:Core/Src/main.c **** {0x20, 0x00, 0xb3, 0x2c, 0x00, 0x00, 0x00, 0x00, 0x00, 0x00, 0x00, 0x80, 0xda, 0x00, 0xd9, 0x02, 0x
 161:Core/Src/main.c **** {0x20, 0x00, 0xb4, 0x2c, 0x00, 0x00, 0x00, 0x00, 0x00, 0x00, 0x4e, 0x81, 0xda, 0x00, 0xd9, 0x02, 0x
 162:Core/Src/main.c **** {0x20, 0x00, 0xb5, 0x2c, 0x00, 0x00, 0x00, 0x00, 0x00, 0x00, 0x52, 0x9b, 0xd6, 0x01, 0xd9, 0x02, 0x
 163:Core/Src/main.c **** {0x20, 0x00, 0xb6, 0x2c, 0x00, 0x00, 0x00, 0x00, 0x00, 0x00, 0x54, 0xa0, 0xfc, 0x02, 0xd9, 0x02, 0x
 164:Core/Src/main.c **** {0x20, 0x00, 0xb7, 0x2c, 0x00, 0x00, 0x00, 0x00, 0x00, 0x00, 0x3c, 0xce, 0x55, 0x04, 0xd9, 0x02, 0x
 165:Core/Src/main.c **** {0x20, 0x00, 0xb8, 0x2c, 0x00, 0x00, 0x00, 0x00, 0x00, 0x00, 0x4c, 0xd3, 0x23, 0x05, 0xd9, 0x02, 0x
 166:Core/Src/main.c **** {0x20, 0x00, 0xb9, 0x2c, 0x00, 0x00, 0x00, 0x00, 0x00, 0x00, 0x79, 0xfb, 0x6e, 0x05, 0xd9, 0x02, 0x
 167:Core/Src/main.c **** {0x20, 0x00, 0xba, 0x2c, 0x00, 0x00, 0x00, 0x00, 0x00, 0x00, 0x84, 0xfb, 0xa4, 0x05, 0xd9, 0x02, 0x
 168:Core/Src/main.c **** {0x20, 0x00, 0xbb, 0x2c, 0x00, 0x00, 0x00, 0x00, 0x00, 0x00, 0x84, 0xfb, 0xdb, 0x05, 0xd9, 0x02, 0x
 169:Core/Src/main.c **** {0x20, 0x00, 0xbc, 0x2c, 0x00, 0x00, 0x00, 0x00, 0x00, 0x00, 0x84, 0xfb, 0x1f, 0x06, 0xd9, 0x02, 0x
 170:Core/Src/main.c **** {0x20, 0x00, 0xbd, 0x2c, 0x00, 0x00, 0x00, 0x00, 0x00, 0x00, 0x84, 0xfb, 0x40, 0x06, 0xd9, 0x02, 0x
 171:Core/Src/main.c **** {0x20, 0x00, 0xbe, 0x2c, 0x00, 0x00, 0x00, 0x00, 0x00, 0x00, 0xa9, 0xfc, 0x40, 0x06, 0xd9, 0x02, 0x
 172:Core/Src/main.c **** {0x20, 0x00, 0xbf, 0x2c, 0x00, 0x00, 0x00, 0x00, 0x00, 0x00, 0xa1, 0xfd, 0x40, 0x06, 0xd9, 0x02, 0x
 173:Core/Src/main.c **** {0x20, 0x00, 0xc0, 0x2c, 0x00, 0x00, 0x00, 0x00, 0x00, 0x00, 0x84, 0xfe, 0x40, 0x06, 0xd9, 0x02, 0x
 174:Core/Src/main.c **** {0x20, 0x00, 0xc1, 0x2c, 0x00, 0x00, 0x00, 0x00, 0x00, 0x00, 0x3f, 0xff, 0x40, 0x06, 0xd9, 0x02, 0x
 175:Core/Src/main.c **** {0x20, 0x00, 0xc2, 0x2c, 0x00, 0x00, 0x00, 0x00, 0x00, 0x00, 0xdb, 0xff, 0x40, 0x06, 0xd9, 0x02, 0x
 176:Core/Src/main.c **** {0x20, 0x00, 0xc3, 0x2c, 0x00, 0x00, 0x00, 0x00, 0x00, 0x00, 0x51, 0x00, 0x40, 0x06, 0xd9, 0x02, 0x
 177:Core/Src/main.c **** {0x20, 0x00, 0xc4, 0x2c, 0x00, 0x00, 0x00, 0x00, 0x00, 0x00, 0xaf, 0x00, 0xbb, 0x05, 0xd9, 0x02, 0x
 178:Core/Src/main.c **** {0x20, 0x00, 0xc5, 0x2c, 0x00, 0x00, 0x00, 0x00, 0x00, 0x00, 0x00, 0x01, 0xb6, 0x05, 0xd9, 0x02, 0x
 179:Core/Src/main.c **** {0x20, 0x00, 0xc6, 0x2c, 0x00, 0x00, 0x00, 0x00, 0x00, 0x00, 0x41, 0x01, 0xb6, 0x05, 0xd9, 0x02, 0x
 180:Core/Src/main.c **** {0x20, 0x00, 0xc7, 0x2c, 0x00, 0x00, 0x00, 0x00, 0x00, 0x00, 0x75, 0x01, 0xb6, 0x05, 0xd9, 0x02, 0x
 181:Core/Src/main.c **** {0x20, 0x00, 0xc8, 0x2c, 0x00, 0x00, 0x00, 0x00, 0x00, 0x00, 0xc1, 0x01, 0xb6, 0x05, 0xd9, 0x02, 0x
 182:Core/Src/main.c **** {0x20, 0x00, 0xc9, 0x2c, 0x00, 0x00, 0x00, 0x00, 0x00, 0x00, 0xdc, 0x01, 0xb6, 0x05, 0xd9, 0x02, 0x
 183:Core/Src/main.c **** {0x20, 0x00, 0xca, 0x2c, 0x00, 0x00, 0x00, 0x00, 0x00, 0x00, 0x25, 0x02, 0x2a, 0x05, 0xd9, 0x02, 0x
 184:Core/Src/main.c **** {0x20, 0x00, 0xcb, 0x2c, 0x00, 0x00, 0x00, 0x00, 0x00, 0x00, 0x25, 0x02, 0xe7, 0x04, 0xd9, 0x02, 0x
 185:Core/Src/main.c **** {0x20, 0x00, 0xcc, 0x2c, 0x00, 0x00, 0x00, 0x00, 0x00, 0x00, 0x25, 0x02, 0x99, 0x04, 0xd9, 0x02, 0x
 186:Core/Src/main.c **** {0x20, 0x00, 0xcd, 0x2c, 0x00, 0x00, 0x00, 0x00, 0x00, 0x00, 0x25, 0x02, 0x48, 0x04, 0xd9, 0x02, 0x
 187:Core/Src/main.c **** {0x20, 0x00, 0xce, 0x2c, 0x00, 0x00, 0x00, 0x00, 0x00, 0x00, 0x25, 0x02, 0xf6, 0x03, 0xd9, 0x02, 0x
 188:Core/Src/main.c **** {0x20, 0x00, 0xcf, 0x2c, 0x00, 0x00, 0x00, 0x00, 0x00, 0x00, 0x25, 0x02, 0xae, 0x03, 0xd9, 0x02, 0x
 189:Core/Src/main.c **** {0x20, 0x00, 0xd0, 0x2c, 0x00, 0x00, 0x00, 0x00, 0x00, 0x00, 0x25, 0x02, 0x7a, 0x03, 0xd9, 0x02, 0x
 190:Core/Src/main.c **** {0x20, 0x00, 0xd1, 0x2c, 0x00, 0x00, 0x00, 0x00, 0x00, 0x00, 0x25, 0x02, 0x24, 0x03, 0xd9, 0x02, 0x
 191:Core/Src/main.c **** {0x20, 0x00, 0xd2, 0x2c, 0x00, 0x00, 0x00, 0x00, 0x00, 0x00, 0x25, 0x02, 0x00, 0x03, 0xd9, 0x02, 0x
 192:Core/Src/main.c **** {0x20, 0x00, 0xd3, 0x2c, 0x00, 0x00, 0x00, 0x00, 0x00, 0x00, 0x25, 0x02, 0xb4, 0x02, 0xd9, 0x02, 0x
 193:Core/Src/main.c **** {0x20, 0x00, 0xd4, 0x2c, 0x00, 0x00, 0x00, 0x00, 0x00, 0x00, 0x25, 0x02, 0x97, 0x02, 0xd9, 0x02, 0x
 194:Core/Src/main.c **** {0x20, 0x00, 0xd5, 0x2c, 0x00, 0x00, 0x00, 0x00, 0x00, 0x00, 0x25, 0x02, 0x49, 0x02, 0xd9, 0x02, 0x
 195:Core/Src/main.c **** {0x20, 0x00, 0xd6, 0x2c, 0x00, 0x00, 0x00, 0x00, 0x00, 0x00, 0x25, 0x02, 0x37, 0x02, 0xd9, 0x02, 0x
 196:Core/Src/main.c **** {0x20, 0x00, 0xd7, 0x2c, 0x00, 0x00, 0x00, 0x00, 0x00, 0x00, 0x25, 0x02, 0xe9, 0x01, 0xd9, 0x02, 0x
 197:Core/Src/main.c **** {0x20, 0x00, 0xd8, 0x2c, 0x00, 0x00, 0x00, 0x00, 0x00, 0x00, 0x25, 0x02, 0xd5, 0x01, 0xd9, 0x02, 0x
 198:Core/Src/main.c **** {0x20, 0x00, 0xd9, 0x2c, 0x00, 0x00, 0x00, 0x00, 0x00, 0x00, 0x25, 0x02, 0x89, 0x01, 0xd9, 0x02, 0x
 199:Core/Src/main.c **** {0x20, 0x00, 0xda, 0x2c, 0x00, 0x00, 0x00, 0x00, 0x00, 0x00, 0x25, 0x02, 0x75, 0x01, 0xd9, 0x02, 0x
 200:Core/Src/main.c **** {0x20, 0x00, 0xdb, 0x2c, 0x00, 0x00, 0x00, 0x00, 0x00, 0x00, 0x25, 0x02, 0x1b, 0x01, 0xd9, 0x02, 0x
 201:Core/Src/main.c **** {0x20, 0x00, 0xdc, 0x2c, 0x00, 0x00, 0x00, 0x00, 0x00, 0x00, 0x25, 0x02, 0x08, 0x01, 0xd9, 0x02, 0x
 202:Core/Src/main.c **** {0x20, 0x00, 0xdd, 0x2c, 0x00, 0x00, 0x00, 0x00, 0x00, 0x00, 0x25, 0x02, 0xba, 0x00, 0xd9, 0x02, 0x
 203:Core/Src/main.c **** {0x20, 0x00, 0xde, 0x2c, 0x00, 0x00, 0x00, 0x00, 0x00, 0x00, 0x52, 0x02, 0x92, 0x00, 0xd9, 0x02, 0x
ARM GAS  /run/user/1000/cc4cbKPI.s 			page 5


 204:Core/Src/main.c **** {0x20, 0x00, 0xdf, 0x2c, 0x00, 0x00, 0x00, 0x00, 0x00, 0x00, 0x52, 0x02, 0x52, 0x00, 0xd9, 0x02, 0x
 205:Core/Src/main.c **** {0x20, 0x00, 0xe0, 0x2c, 0x00, 0x00, 0x00, 0x00, 0x00, 0x00, 0xbf, 0x00, 0x52, 0x00, 0xd9, 0x02, 0x
 206:Core/Src/main.c **** {0x20, 0x00, 0xe1, 0x2c, 0x00, 0x00, 0x00, 0x00, 0x00, 0x00, 0xf9, 0xfd, 0x04, 0x01, 0xd9, 0x02, 0x
 207:Core/Src/main.c **** {0x20, 0x00, 0xe2, 0x2c, 0x00, 0x00, 0x00, 0x00, 0x00, 0x00, 0x67, 0xd7, 0x5c, 0x02, 0xd9, 0x02, 0x
 208:Core/Src/main.c **** {0x20, 0x00, 0xe3, 0x2c, 0x00, 0x00, 0x00, 0x00, 0x00, 0x00, 0x83, 0xaa, 0xc4, 0x04, 0xd9, 0x02, 0x
 209:Core/Src/main.c **** {0x20, 0x00, 0xe4, 0x2c, 0x00, 0x00, 0x00, 0x00, 0x00, 0x00, 0x00, 0x80, 0xe2, 0x07, 0xd9, 0x02, 0x
 210:Core/Src/main.c **** {0x20, 0x00, 0xe5, 0x2c, 0x00, 0x00, 0x00, 0x00, 0x00, 0x00, 0x00, 0x80, 0x55, 0x0a, 0xd9, 0x02, 0x
 211:Core/Src/main.c **** {0x20, 0x00, 0xe6, 0x2c, 0x00, 0x00, 0x00, 0x00, 0x00, 0x00, 0x00, 0x80, 0xf3, 0x0b, 0xd9, 0x02, 0x
 212:Core/Src/main.c **** {0x20, 0x00, 0xe7, 0x2c, 0x00, 0x00, 0x00, 0x00, 0x00, 0x00, 0x00, 0x80, 0xbf, 0x0c, 0xd9, 0x02, 0x
 213:Core/Src/main.c **** {0x20, 0x00, 0xe8, 0x2c, 0x00, 0x00, 0x00, 0x00, 0x00, 0x00, 0x00, 0x80, 0xff, 0x0c, 0xd9, 0x02, 0x
 214:Core/Src/main.c **** {0x20, 0x00, 0xe9, 0x2c, 0x00, 0x00, 0x00, 0x00, 0x00, 0x00, 0x00, 0x80, 0x50, 0x0c, 0xd9, 0x02, 0x
 215:Core/Src/main.c **** {0x20, 0x00, 0xea, 0x2c, 0x00, 0x00, 0x00, 0x00, 0x00, 0x00, 0x00, 0x80, 0x17, 0x0c, 0xd9, 0x02, 0x
 216:Core/Src/main.c **** {0x20, 0x00, 0xeb, 0x2c, 0x00, 0x00, 0x00, 0x00, 0x00, 0x00, 0x00, 0x80, 0xe4, 0x0b, 0xd9, 0x02, 0x
 217:Core/Src/main.c **** {0x20, 0x00, 0xec, 0x2c, 0x00, 0x00, 0x00, 0x00, 0x00, 0x00, 0x00, 0x80, 0x94, 0x0b, 0xd9, 0x02, 0x
 218:Core/Src/main.c **** {0x20, 0x00, 0xed, 0x2c, 0x00, 0x00, 0x00, 0x00, 0x00, 0x00, 0x00, 0x80, 0x4e, 0x0b, 0xd9, 0x02, 0x
 219:Core/Src/main.c **** {0x20, 0x00, 0xee, 0x2c, 0x00, 0x00, 0x00, 0x00, 0x00, 0x00, 0x00, 0x80, 0xdf, 0x0a, 0xd9, 0x02, 0x
 220:Core/Src/main.c **** {0x20, 0x00, 0xef, 0x2c, 0x00, 0x00, 0x00, 0x00, 0x00, 0x00, 0x00, 0x80, 0x7c, 0x0a, 0xd9, 0x02, 0x
 221:Core/Src/main.c **** {0x20, 0x00, 0xf0, 0x2c, 0x00, 0x00, 0x00, 0x00, 0x00, 0x00, 0x00, 0x80, 0x37, 0x0a, 0xd9, 0x02, 0x
 222:Core/Src/main.c **** {0x20, 0x00, 0xf1, 0x2c, 0x00, 0x00, 0x00, 0x00, 0x00, 0x00, 0x32, 0x82, 0x5a, 0x0b, 0xd9, 0x02, 0x
 223:Core/Src/main.c **** {0x20, 0x00, 0xf2, 0x2c, 0x00, 0x00, 0x00, 0x00, 0x00, 0x00, 0x67, 0xa1, 0x44, 0x0c, 0xd9, 0x02, 0x
 224:Core/Src/main.c **** {0x20, 0x00, 0xf3, 0x2c, 0x00, 0x00, 0x00, 0x00, 0x00, 0x00, 0xed, 0xa5, 0x29, 0x0d, 0xd9, 0x02, 0x
 225:Core/Src/main.c **** {0x20, 0x00, 0xf4, 0x2c, 0x00, 0x00, 0x00, 0x00, 0x00, 0x00, 0xff, 0xd1, 0xbc, 0x0d, 0xd9, 0x02, 0x
 226:Core/Src/main.c **** {0x20, 0x00, 0xf5, 0x2c, 0x00, 0x00, 0x00, 0x00, 0x00, 0x00, 0x41, 0xd6, 0xe7, 0x0d, 0xd9, 0x02, 0x
 227:Core/Src/main.c **** {0x20, 0x00, 0xf6, 0x2c, 0x00, 0x00, 0x00, 0x00, 0x00, 0x00, 0xd5, 0xf6, 0xe7, 0x0d, 0xd9, 0x02, 0x
 228:Core/Src/main.c **** {0x20, 0x00, 0xf7, 0x2c, 0x00, 0x00, 0x00, 0x00, 0x00, 0x00, 0xb7, 0xf7, 0xa1, 0x0c, 0xd9, 0x02, 0x
 229:Core/Src/main.c **** {0x20, 0x00, 0xf8, 0x2c, 0x00, 0x00, 0x00, 0x00, 0x00, 0x00, 0x61, 0xf8, 0xf2, 0x0b, 0xd9, 0x02, 0x
 230:Core/Src/main.c **** {0x20, 0x00, 0xf9, 0x2c, 0x00, 0x00, 0x00, 0x00, 0x00, 0x00, 0xe9, 0xf8, 0x60, 0x0b, 0xd9, 0x02, 0x
 231:Core/Src/main.c **** {0x20, 0x00, 0xfa, 0x2c, 0x00, 0x00, 0x00, 0x00, 0x00, 0x00, 0x55, 0xf9, 0xdf, 0x0a, 0xd9, 0x02, 0x
 232:Core/Src/main.c **** {0x20, 0x00, 0xfb, 0x2c, 0x00, 0x00, 0x00, 0x00, 0x00, 0x00, 0xaa, 0xf9, 0x4e, 0x0a, 0xd9, 0x02, 0x
 233:Core/Src/main.c **** {0x20, 0x00, 0xfc, 0x2c, 0x00, 0x00, 0x00, 0x00, 0x00, 0x00, 0xf8, 0xf9, 0xb0, 0x09, 0xd9, 0x02, 0x
 234:Core/Src/main.c **** {0x20, 0x00, 0xfd, 0x2c, 0x00, 0x00, 0x00, 0x00, 0x00, 0x00, 0x3a, 0xfa, 0x13, 0x09, 0xd9, 0x02, 0x
 235:Core/Src/main.c **** {0x20, 0x00, 0xfe, 0x2c, 0x00, 0x00, 0x00, 0x00, 0x00, 0x00, 0x69, 0xfa, 0x84, 0x08, 0xd9, 0x02, 0x
 236:Core/Src/main.c **** {0x20, 0x00, 0xff, 0x2c, 0x00, 0x00, 0x00, 0x00, 0x00, 0x00, 0x69, 0xfa, 0x05, 0x08, 0xd9, 0x02, 0x
 237:Core/Src/main.c **** {0x20, 0x00, 0x01, 0x2c, 0x00, 0x00, 0x00, 0x00, 0x00, 0x00, 0xbc, 0xfa, 0x99, 0x07, 0xd9, 0x02, 0x
 238:Core/Src/main.c **** {0x20, 0x00, 0x02, 0x2c, 0x00, 0x00, 0x00, 0x00, 0x00, 0x00, 0xe1, 0xfa, 0x3d, 0x07, 0xd9, 0x02, 0x
 239:Core/Src/main.c **** {0x20, 0x00, 0x03, 0x2c, 0x00, 0x00, 0x00, 0x00, 0x00, 0x00, 0xe1, 0xfa, 0xf9, 0x06, 0xd9, 0x02, 0x
 240:Core/Src/main.c **** {0x20, 0x00, 0x04, 0x2c, 0x00, 0x00, 0x00, 0x00, 0x00, 0x00, 0xe1, 0xfa, 0xc2, 0x06, 0xd9, 0x02, 0x
 241:Core/Src/main.c **** {0x20, 0x00, 0x05, 0x2c, 0x00, 0x00, 0x00, 0x00, 0x00, 0x00, 0x3a, 0xfb, 0x95, 0x06, 0xd9, 0x02, 0x
 242:Core/Src/main.c **** {0x20, 0x00, 0x06, 0x2c, 0x00, 0x00, 0x00, 0x00, 0x00, 0x00, 0x51, 0xfb, 0x95, 0x06, 0xd9, 0x02, 0x
 243:Core/Src/main.c **** {0x20, 0x00, 0x07, 0x2c, 0x00, 0x00, 0x00, 0x00, 0x00, 0x00, 0x51, 0xfb, 0x55, 0x06, 0xd9, 0x02, 0x
 244:Core/Src/main.c **** {0x20, 0x00, 0x08, 0x2c, 0x00, 0x00, 0x00, 0x00, 0x00, 0x00, 0x51, 0xfb, 0x26, 0x06, 0xd9, 0x02, 0x
 245:Core/Src/main.c **** {0x20, 0x00, 0x09, 0x2c, 0x00, 0x00, 0x00, 0x00, 0x00, 0x00, 0xa0, 0xfb, 0x26, 0x06, 0xd9, 0x02, 0x
 246:Core/Src/main.c **** {0x20, 0x00, 0x0a, 0x2c, 0x00, 0x00, 0x00, 0x00, 0x00, 0x00, 0xb4, 0xfb, 0xf3, 0x05, 0xd9, 0x02, 0x
 247:Core/Src/main.c **** {0x20, 0x00, 0x0b, 0x2c, 0x00, 0x00, 0x00, 0x00, 0x00, 0x00, 0xb4, 0xfb, 0xb9, 0x05, 0xd9, 0x02, 0x
 248:Core/Src/main.c **** {0x20, 0x00, 0x0c, 0x2c, 0x00, 0x00, 0x00, 0x00, 0x00, 0x00, 0x01, 0xfc, 0xb9, 0x05, 0xd9, 0x02, 0x
 249:Core/Src/main.c **** {0x20, 0x00, 0x0d, 0x2c, 0x00, 0x00, 0x00, 0x00, 0x00, 0x00, 0x01, 0xfc, 0x90, 0x05, 0xd9, 0x02, 0x
 250:Core/Src/main.c **** {0x20, 0x00, 0x0e, 0x2c, 0x00, 0x00, 0x00, 0x00, 0x00, 0x00, 0x15, 0xfc, 0x90, 0x05, 0xd9, 0x02, 0x
 251:Core/Src/main.c **** {0x20, 0x00, 0x0f, 0x2c, 0x00, 0x00, 0x00, 0x00, 0x00, 0x00, 0x15, 0xfc, 0x58, 0x05, 0xd9, 0x02, 0x
 252:Core/Src/main.c **** {0x20, 0x00, 0x10, 0x2c, 0x00, 0x00, 0x00, 0x00, 0x00, 0x00, 0x15, 0xfc, 0x2b, 0x05, 0xd9, 0x02, 0x
 253:Core/Src/main.c **** {0x20, 0x00, 0x11, 0x2c, 0x00, 0x00, 0x00, 0x00, 0x00, 0x00, 0x15, 0xfc, 0xcc, 0x04, 0xd9, 0x02, 0x
 254:Core/Src/main.c **** {0x20, 0x00, 0x12, 0x2c, 0x00, 0x00, 0x00, 0x00, 0x00, 0x00, 0x15, 0xfc, 0x40, 0x04, 0xd9, 0x02, 0x
 255:Core/Src/main.c **** {0x20, 0x00, 0x13, 0x2c, 0x00, 0x00, 0x00, 0x00, 0x00, 0x00, 0x15, 0xfc, 0xb4, 0x03, 0xd9, 0x02, 0x
 256:Core/Src/main.c **** {0x20, 0x00, 0x14, 0x2c, 0x00, 0x00, 0x00, 0x00, 0x00, 0x00, 0x15, 0xfc, 0x38, 0x03, 0xd9, 0x02, 0x
 257:Core/Src/main.c **** {0x20, 0x00, 0x15, 0x2c, 0x00, 0x00, 0x00, 0x00, 0x00, 0x00, 0x15, 0xfc, 0xcf, 0x02, 0xd9, 0x02, 0x
 258:Core/Src/main.c **** {0x20, 0x00, 0x16, 0x2c, 0x00, 0x00, 0x00, 0x00, 0x00, 0x00, 0x15, 0xfc, 0x6b, 0x02, 0xd9, 0x02, 0x
 259:Core/Src/main.c **** {0x20, 0x00, 0x17, 0x2c, 0x00, 0x00, 0x00, 0x00, 0x00, 0x00, 0x15, 0xfc, 0x2b, 0x02, 0xd9, 0x02, 0x
 260:Core/Src/main.c **** {0x20, 0x00, 0x18, 0x2c, 0x00, 0x00, 0x00, 0x00, 0x00, 0x00, 0x15, 0xfc, 0xec, 0x01, 0xd9, 0x02, 0x
ARM GAS  /run/user/1000/cc4cbKPI.s 			page 6


 261:Core/Src/main.c **** {0x20, 0x00, 0x19, 0x2c, 0x00, 0x00, 0x00, 0x00, 0x00, 0x00, 0x15, 0xfc, 0xba, 0x01, 0xd9, 0x02, 0x
 262:Core/Src/main.c **** {0x20, 0x00, 0x1a, 0x2c, 0x00, 0x00, 0x00, 0x00, 0x00, 0x00, 0x15, 0xfc, 0x77, 0x01, 0xd9, 0x02, 0x
 263:Core/Src/main.c **** {0x20, 0x00, 0x1b, 0x2c, 0x00, 0x00, 0x00, 0x00, 0x00, 0x00, 0x15, 0xfc, 0x57, 0x01, 0xd9, 0x02, 0x
 264:Core/Src/main.c **** {0x20, 0x00, 0x1c, 0x2c, 0x00, 0x00, 0x00, 0x00, 0x00, 0x00, 0x15, 0xfc, 0x17, 0x01, 0xd9, 0x02, 0x
 265:Core/Src/main.c **** {0x20, 0x00, 0x1d, 0x2c, 0x00, 0x00, 0x00, 0x00, 0x00, 0x00, 0x15, 0xfc, 0xf7, 0x00, 0xd9, 0x02, 0x
 266:Core/Src/main.c **** {0x20, 0x00, 0x1e, 0x2c, 0x00, 0x00, 0x00, 0x00, 0x00, 0x00, 0x15, 0xfc, 0xc8, 0x02, 0xd9, 0x02, 0x
 267:Core/Src/main.c **** {0x20, 0x00, 0x1f, 0x2c, 0x00, 0x00, 0x00, 0x00, 0x00, 0x00, 0x68, 0xfc, 0x28, 0x05, 0xd9, 0x02, 0x
 268:Core/Src/main.c **** {0x20, 0x00, 0x20, 0x2c, 0x00, 0x00, 0x00, 0x00, 0x00, 0x00, 0x92, 0xfd, 0x45, 0x09, 0xd9, 0x02, 0x
 269:Core/Src/main.c **** {0x20, 0x00, 0x21, 0x2c, 0x00, 0x00, 0x00, 0x00, 0x00, 0x00, 0xc5, 0xfe, 0x91, 0x2c, 0xd9, 0x02, 0x
 270:Core/Src/main.c **** {0x20, 0x00, 0x22, 0x2c, 0x00, 0x00, 0x00, 0x00, 0x00, 0x00, 0xce, 0xff, 0xd0, 0x47, 0xd9, 0x02, 0x
 271:Core/Src/main.c **** {0x20, 0x00, 0x23, 0x2c, 0x00, 0x00, 0x00, 0x00, 0x00, 0x00, 0xb2, 0x00, 0xec, 0x67, 0xd9, 0x02, 0x
 272:Core/Src/main.c **** {0x20, 0x00, 0x24, 0x2c, 0x00, 0x00, 0x00, 0x00, 0x00, 0x00, 0x8f, 0x01, 0xff, 0x7f, 0xd9, 0x02, 0x
 273:Core/Src/main.c **** {0x20, 0x00, 0x25, 0x2c, 0x00, 0x00, 0x00, 0x00, 0x00, 0x00, 0x40, 0x02, 0xff, 0x7f, 0xd9, 0x02, 0x
 274:Core/Src/main.c **** {0x20, 0x00, 0x26, 0x2c, 0x00, 0x00, 0x00, 0x00, 0x00, 0x00, 0xc8, 0x02, 0xff, 0x7f, 0xd9, 0x02, 0x
 275:Core/Src/main.c **** {0x20, 0x00, 0x27, 0x2c, 0x00, 0x00, 0x00, 0x00, 0x00, 0x00, 0x3a, 0x03, 0xff, 0x7f, 0xd9, 0x02, 0x
 276:Core/Src/main.c **** {0x20, 0x00, 0x28, 0x2c, 0x00, 0x00, 0x00, 0x00, 0x00, 0x00, 0x96, 0x03, 0xff, 0x7f, 0xd9, 0x02, 0x
 277:Core/Src/main.c **** {0x20, 0x00, 0x29, 0x2c, 0x00, 0x00, 0x00, 0x00, 0x00, 0x00, 0xda, 0x03, 0xff, 0x7f, 0xd9, 0x02, 0x
 278:Core/Src/main.c **** {0x20, 0x00, 0x2a, 0x2c, 0x00, 0x00, 0x00, 0x00, 0x00, 0x00, 0x10, 0x04, 0xff, 0x7f, 0xd9, 0x02, 0x
 279:Core/Src/main.c **** {0x20, 0x00, 0x2b, 0x2c, 0x00, 0x00, 0x00, 0x00, 0x00, 0x00, 0x3b, 0x04, 0xff, 0x7f, 0xd9, 0x02, 0x
 280:Core/Src/main.c **** {0x20, 0x00, 0x2c, 0x2c, 0x00, 0x00, 0x00, 0x00, 0x00, 0x00, 0x79, 0x04, 0xff, 0x7f, 0xd9, 0x02, 0x
 281:Core/Src/main.c **** {0x20, 0x00, 0x2d, 0x2c, 0x00, 0x00, 0x00, 0x00, 0x00, 0x00, 0x9c, 0x04, 0xff, 0x7f, 0xd9, 0x02, 0x
 282:Core/Src/main.c **** {0x20, 0x00, 0x2e, 0x2c, 0x00, 0x00, 0x00, 0x00, 0x00, 0x00, 0xdc, 0x04, 0xff, 0x7f, 0xd9, 0x02, 0x
 283:Core/Src/main.c **** {0x20, 0x00, 0x2f, 0x2c, 0x00, 0x00, 0x00, 0x00, 0x00, 0x00, 0xdc, 0x04, 0x62, 0x54, 0xd9, 0x02, 0x
 284:Core/Src/main.c **** {0x20, 0x00, 0x30, 0x2c, 0x00, 0x00, 0x00, 0x00, 0x00, 0x00, 0xdc, 0x04, 0xd8, 0x1b, 0xd9, 0x02, 0x
 285:Core/Src/main.c **** {0x20, 0x00, 0x31, 0x2c, 0x00, 0x00, 0x00, 0x00, 0x00, 0x00, 0xff, 0x03, 0x21, 0xfe, 0xd9, 0x02, 0x
 286:Core/Src/main.c **** {0x20, 0x00, 0x32, 0x2c, 0x00, 0x00, 0x00, 0x00, 0x00, 0x00, 0xa2, 0x03, 0x34, 0xff, 0xd9, 0x02, 0x
 287:Core/Src/main.c **** {0x20, 0x00, 0x33, 0x2c, 0x00, 0x00, 0x00, 0x00, 0x00, 0x00, 0x59, 0x03, 0xae, 0xfe, 0xd9, 0x02, 0x
 288:Core/Src/main.c **** {0x20, 0x00, 0x34, 0x2c, 0x00, 0x00, 0x00, 0x00, 0x00, 0x00, 0x1f, 0x03, 0x42, 0xfe, 0xd9, 0x02, 0x
 289:Core/Src/main.c **** {0x20, 0x00, 0x35, 0x2c, 0x00, 0x00, 0x00, 0x00, 0x00, 0x00, 0xf0, 0x02, 0xf6, 0xfd, 0xd9, 0x02, 0x
 290:Core/Src/main.c **** {0x20, 0x00, 0x36, 0x2c, 0x00, 0x00, 0x00, 0x00, 0x00, 0x00, 0xf0, 0x02, 0xb4, 0xfd, 0xd9, 0x02, 0x
 291:Core/Src/main.c **** {0x20, 0x00, 0x37, 0x2c, 0x00, 0x00, 0x00, 0x00, 0x00, 0x00, 0xb3, 0x02, 0x80, 0xfd, 0xd9, 0x02, 0x
 292:Core/Src/main.c **** {0x20, 0x00, 0x38, 0x2c, 0x00, 0x00, 0x00, 0x00, 0x00, 0x00, 0x86, 0x02, 0x34, 0xfd, 0xd9, 0x02, 0x
 293:Core/Src/main.c **** {0x20, 0x00, 0x39, 0x2c, 0x00, 0x00, 0x00, 0x00, 0x00, 0x00, 0x86, 0x02, 0x19, 0xfd, 0xd9, 0x02, 0x
 294:Core/Src/main.c **** {0x20, 0x00, 0x3a, 0x2c, 0x00, 0x00, 0x00, 0x00, 0x00, 0x00, 0x50, 0x02, 0x19, 0xfd, 0xd9, 0x02, 0x
 295:Core/Src/main.c **** {0x20, 0x00, 0x3b, 0x2c, 0x00, 0x00, 0x00, 0x00, 0x00, 0x00, 0x50, 0x02, 0xd0, 0xfc, 0xd9, 0x02, 0x
 296:Core/Src/main.c **** {0x20, 0x00, 0x3c, 0x2c, 0x00, 0x00, 0x00, 0x00, 0x00, 0x00, 0x50, 0x02, 0xb7, 0xfc, 0xd9, 0x02, 0x
 297:Core/Src/main.c **** {0x20, 0x00, 0x3d, 0x2c, 0x00, 0x00, 0x00, 0x00, 0x00, 0x00, 0x26, 0x02, 0xb7, 0xfc, 0xd9, 0x02, 0x
 298:Core/Src/main.c **** };
 299:Core/Src/main.c **** 
 300:Core/Src/main.c **** 
 301:Core/Src/main.c **** 
 302:Core/Src/main.c **** 	uint8_t finished[1] = {0x00};
 303:Core/Src/main.c **** 	uint32_t i = 0;
 304:Core/Src/main.c **** 
 305:Core/Src/main.c **** 	/* USER CODE END 2 */
 306:Core/Src/main.c **** 
 307:Core/Src/main.c **** 	/* Infinite loop */
 308:Core/Src/main.c **** 	/* USER CODE BEGIN WHILE */
 309:Core/Src/main.c **** 	HAL_Delay(5000);
 310:Core/Src/main.c **** 	while (1)
 311:Core/Src/main.c **** 	{
 312:Core/Src/main.c **** 		/* USER CODE END WHILE */
 313:Core/Src/main.c **** 		if (i <= 203) {
 314:Core/Src/main.c **** 			USBD_HID_SendReport(&hUsbDeviceFS, &(data[i][0]), HID_EPIN_SIZE);
 315:Core/Src/main.c **** 			HAL_Delay(500);
 316:Core/Src/main.c **** 			i++;
 317:Core/Src/main.c **** 		} else {
ARM GAS  /run/user/1000/cc4cbKPI.s 			page 7


 318:Core/Src/main.c **** 			USBD_HID_SendReport(&hUsbDeviceFS, finished, HID_EPIN_SIZE);
 319:Core/Src/main.c **** 		}
 320:Core/Src/main.c **** 
 321:Core/Src/main.c **** 		/* USER CODE BEGIN 3 */
 322:Core/Src/main.c **** 	}
 323:Core/Src/main.c **** 	/* USER CODE END 3 */
 324:Core/Src/main.c **** }
 325:Core/Src/main.c **** 
 326:Core/Src/main.c **** /**
 327:Core/Src/main.c ****   * @brief System Clock Configuration
 328:Core/Src/main.c ****   * @retval None
 329:Core/Src/main.c ****   */
 330:Core/Src/main.c **** void SystemClock_Config(void)
 331:Core/Src/main.c **** {
 332:Core/Src/main.c **** 	RCC_OscInitTypeDef RCC_OscInitStruct = {0};
 333:Core/Src/main.c **** 	RCC_ClkInitTypeDef RCC_ClkInitStruct = {0};
 334:Core/Src/main.c **** 	RCC_PeriphCLKInitTypeDef PeriphClkInit = {0};
 335:Core/Src/main.c **** 
 336:Core/Src/main.c **** 	/** Initializes the RCC Oscillators according to the specified parameters
 337:Core/Src/main.c ****   * in the RCC_OscInitTypeDef structure.
 338:Core/Src/main.c ****   */
 339:Core/Src/main.c **** 	RCC_OscInitStruct.OscillatorType = RCC_OSCILLATORTYPE_HSE;
 340:Core/Src/main.c **** 	RCC_OscInitStruct.HSEState = RCC_HSE_ON;
 341:Core/Src/main.c **** 	RCC_OscInitStruct.HSEPredivValue = RCC_HSE_PREDIV_DIV1;
 342:Core/Src/main.c **** 	RCC_OscInitStruct.HSIState = RCC_HSI_ON;
 343:Core/Src/main.c **** 	RCC_OscInitStruct.PLL.PLLState = RCC_PLL_ON;
 344:Core/Src/main.c **** 	RCC_OscInitStruct.PLL.PLLSource = RCC_PLLSOURCE_HSE;
 345:Core/Src/main.c **** 	RCC_OscInitStruct.PLL.PLLMUL = RCC_PLL_MUL9;
 346:Core/Src/main.c **** 	if (HAL_RCC_OscConfig(&RCC_OscInitStruct) != HAL_OK)
 347:Core/Src/main.c **** 	{
 348:Core/Src/main.c **** 		Error_Handler();
 349:Core/Src/main.c **** 	}
 350:Core/Src/main.c **** 
 351:Core/Src/main.c **** 	/** Initializes the CPU, AHB and APB buses clocks
 352:Core/Src/main.c ****   */
 353:Core/Src/main.c **** 	RCC_ClkInitStruct.ClockType = RCC_CLOCKTYPE_HCLK|RCC_CLOCKTYPE_SYSCLK
 354:Core/Src/main.c **** 		|RCC_CLOCKTYPE_PCLK1|RCC_CLOCKTYPE_PCLK2;
 355:Core/Src/main.c **** 	RCC_ClkInitStruct.SYSCLKSource = RCC_SYSCLKSOURCE_PLLCLK;
 356:Core/Src/main.c **** 	RCC_ClkInitStruct.AHBCLKDivider = RCC_SYSCLK_DIV1;
 357:Core/Src/main.c **** 	RCC_ClkInitStruct.APB1CLKDivider = RCC_HCLK_DIV2;
 358:Core/Src/main.c **** 	RCC_ClkInitStruct.APB2CLKDivider = RCC_HCLK_DIV1;
 359:Core/Src/main.c **** 
 360:Core/Src/main.c **** 	if (HAL_RCC_ClockConfig(&RCC_ClkInitStruct, FLASH_LATENCY_2) != HAL_OK)
 361:Core/Src/main.c **** 	{
 362:Core/Src/main.c **** 		Error_Handler();
 363:Core/Src/main.c **** 	}
 364:Core/Src/main.c **** 	PeriphClkInit.PeriphClockSelection = RCC_PERIPHCLK_USB;
 365:Core/Src/main.c **** 	PeriphClkInit.UsbClockSelection = RCC_USBCLKSOURCE_PLL_DIV1_5;
 366:Core/Src/main.c **** 	if (HAL_RCCEx_PeriphCLKConfig(&PeriphClkInit) != HAL_OK)
 367:Core/Src/main.c **** 	{
 368:Core/Src/main.c **** 		Error_Handler();
 369:Core/Src/main.c **** 	}
 370:Core/Src/main.c **** }
 371:Core/Src/main.c **** 
 372:Core/Src/main.c **** /* USER CODE BEGIN 4 */
 373:Core/Src/main.c **** 
 374:Core/Src/main.c **** /* USER CODE END 4 */
ARM GAS  /run/user/1000/cc4cbKPI.s 			page 8


 375:Core/Src/main.c **** 
 376:Core/Src/main.c **** /**
 377:Core/Src/main.c ****   * @brief  This function is executed in case of error occurrence.
 378:Core/Src/main.c ****   * @retval None
 379:Core/Src/main.c ****   */
 380:Core/Src/main.c **** void Error_Handler(void)
 381:Core/Src/main.c **** {
  27              		.loc 1 381 1 view -0
  28              		.cfi_startproc
  29              		@ Volatile: function does not return.
  30              		@ args = 0, pretend = 0, frame = 0
  31              		@ frame_needed = 0, uses_anonymous_args = 0
  32              		@ link register save eliminated.
 382:Core/Src/main.c **** 	/* USER CODE BEGIN Error_Handler_Debug */
 383:Core/Src/main.c **** 	/* User can add his own implementation to report the HAL error return state */
 384:Core/Src/main.c **** 	__disable_irq();
  33              		.loc 1 384 2 view .LVU1
  34              	.LBB4:
  35              	.LBI4:
  36              		.file 2 "Drivers/CMSIS/Include/cmsis_gcc.h"
   1:Drivers/CMSIS/Include/cmsis_gcc.h **** /**************************************************************************//**
   2:Drivers/CMSIS/Include/cmsis_gcc.h ****  * @file     cmsis_gcc.h
   3:Drivers/CMSIS/Include/cmsis_gcc.h ****  * @brief    CMSIS compiler GCC header file
   4:Drivers/CMSIS/Include/cmsis_gcc.h ****  * @version  V5.0.4
   5:Drivers/CMSIS/Include/cmsis_gcc.h ****  * @date     09. April 2018
   6:Drivers/CMSIS/Include/cmsis_gcc.h ****  ******************************************************************************/
   7:Drivers/CMSIS/Include/cmsis_gcc.h **** /*
   8:Drivers/CMSIS/Include/cmsis_gcc.h ****  * Copyright (c) 2009-2018 Arm Limited. All rights reserved.
   9:Drivers/CMSIS/Include/cmsis_gcc.h ****  *
  10:Drivers/CMSIS/Include/cmsis_gcc.h ****  * SPDX-License-Identifier: Apache-2.0
  11:Drivers/CMSIS/Include/cmsis_gcc.h ****  *
  12:Drivers/CMSIS/Include/cmsis_gcc.h ****  * Licensed under the Apache License, Version 2.0 (the License); you may
  13:Drivers/CMSIS/Include/cmsis_gcc.h ****  * not use this file except in compliance with the License.
  14:Drivers/CMSIS/Include/cmsis_gcc.h ****  * You may obtain a copy of the License at
  15:Drivers/CMSIS/Include/cmsis_gcc.h ****  *
  16:Drivers/CMSIS/Include/cmsis_gcc.h ****  * www.apache.org/licenses/LICENSE-2.0
  17:Drivers/CMSIS/Include/cmsis_gcc.h ****  *
  18:Drivers/CMSIS/Include/cmsis_gcc.h ****  * Unless required by applicable law or agreed to in writing, software
  19:Drivers/CMSIS/Include/cmsis_gcc.h ****  * distributed under the License is distributed on an AS IS BASIS, WITHOUT
  20:Drivers/CMSIS/Include/cmsis_gcc.h ****  * WARRANTIES OR CONDITIONS OF ANY KIND, either express or implied.
  21:Drivers/CMSIS/Include/cmsis_gcc.h ****  * See the License for the specific language governing permissions and
  22:Drivers/CMSIS/Include/cmsis_gcc.h ****  * limitations under the License.
  23:Drivers/CMSIS/Include/cmsis_gcc.h ****  */
  24:Drivers/CMSIS/Include/cmsis_gcc.h **** 
  25:Drivers/CMSIS/Include/cmsis_gcc.h **** #ifndef __CMSIS_GCC_H
  26:Drivers/CMSIS/Include/cmsis_gcc.h **** #define __CMSIS_GCC_H
  27:Drivers/CMSIS/Include/cmsis_gcc.h **** 
  28:Drivers/CMSIS/Include/cmsis_gcc.h **** /* ignore some GCC warnings */
  29:Drivers/CMSIS/Include/cmsis_gcc.h **** #pragma GCC diagnostic push
  30:Drivers/CMSIS/Include/cmsis_gcc.h **** #pragma GCC diagnostic ignored "-Wsign-conversion"
  31:Drivers/CMSIS/Include/cmsis_gcc.h **** #pragma GCC diagnostic ignored "-Wconversion"
  32:Drivers/CMSIS/Include/cmsis_gcc.h **** #pragma GCC diagnostic ignored "-Wunused-parameter"
  33:Drivers/CMSIS/Include/cmsis_gcc.h **** 
  34:Drivers/CMSIS/Include/cmsis_gcc.h **** /* Fallback for __has_builtin */
  35:Drivers/CMSIS/Include/cmsis_gcc.h **** #ifndef __has_builtin
  36:Drivers/CMSIS/Include/cmsis_gcc.h ****   #define __has_builtin(x) (0)
  37:Drivers/CMSIS/Include/cmsis_gcc.h **** #endif
ARM GAS  /run/user/1000/cc4cbKPI.s 			page 9


  38:Drivers/CMSIS/Include/cmsis_gcc.h **** 
  39:Drivers/CMSIS/Include/cmsis_gcc.h **** /* CMSIS compiler specific defines */
  40:Drivers/CMSIS/Include/cmsis_gcc.h **** #ifndef   __ASM
  41:Drivers/CMSIS/Include/cmsis_gcc.h ****   #define __ASM                                  __asm
  42:Drivers/CMSIS/Include/cmsis_gcc.h **** #endif
  43:Drivers/CMSIS/Include/cmsis_gcc.h **** #ifndef   __INLINE
  44:Drivers/CMSIS/Include/cmsis_gcc.h ****   #define __INLINE                               inline
  45:Drivers/CMSIS/Include/cmsis_gcc.h **** #endif
  46:Drivers/CMSIS/Include/cmsis_gcc.h **** #ifndef   __STATIC_INLINE
  47:Drivers/CMSIS/Include/cmsis_gcc.h ****   #define __STATIC_INLINE                        static inline
  48:Drivers/CMSIS/Include/cmsis_gcc.h **** #endif
  49:Drivers/CMSIS/Include/cmsis_gcc.h **** #ifndef   __STATIC_FORCEINLINE                 
  50:Drivers/CMSIS/Include/cmsis_gcc.h ****   #define __STATIC_FORCEINLINE                   __attribute__((always_inline)) static inline
  51:Drivers/CMSIS/Include/cmsis_gcc.h **** #endif                                           
  52:Drivers/CMSIS/Include/cmsis_gcc.h **** #ifndef   __NO_RETURN
  53:Drivers/CMSIS/Include/cmsis_gcc.h ****   #define __NO_RETURN                            __attribute__((__noreturn__))
  54:Drivers/CMSIS/Include/cmsis_gcc.h **** #endif
  55:Drivers/CMSIS/Include/cmsis_gcc.h **** #ifndef   __USED
  56:Drivers/CMSIS/Include/cmsis_gcc.h ****   #define __USED                                 __attribute__((used))
  57:Drivers/CMSIS/Include/cmsis_gcc.h **** #endif
  58:Drivers/CMSIS/Include/cmsis_gcc.h **** #ifndef   __WEAK
  59:Drivers/CMSIS/Include/cmsis_gcc.h ****   #define __WEAK                                 __attribute__((weak))
  60:Drivers/CMSIS/Include/cmsis_gcc.h **** #endif
  61:Drivers/CMSIS/Include/cmsis_gcc.h **** #ifndef   __PACKED
  62:Drivers/CMSIS/Include/cmsis_gcc.h ****   #define __PACKED                               __attribute__((packed, aligned(1)))
  63:Drivers/CMSIS/Include/cmsis_gcc.h **** #endif
  64:Drivers/CMSIS/Include/cmsis_gcc.h **** #ifndef   __PACKED_STRUCT
  65:Drivers/CMSIS/Include/cmsis_gcc.h ****   #define __PACKED_STRUCT                        struct __attribute__((packed, aligned(1)))
  66:Drivers/CMSIS/Include/cmsis_gcc.h **** #endif
  67:Drivers/CMSIS/Include/cmsis_gcc.h **** #ifndef   __PACKED_UNION
  68:Drivers/CMSIS/Include/cmsis_gcc.h ****   #define __PACKED_UNION                         union __attribute__((packed, aligned(1)))
  69:Drivers/CMSIS/Include/cmsis_gcc.h **** #endif
  70:Drivers/CMSIS/Include/cmsis_gcc.h **** #ifndef   __UNALIGNED_UINT32        /* deprecated */
  71:Drivers/CMSIS/Include/cmsis_gcc.h ****   #pragma GCC diagnostic push
  72:Drivers/CMSIS/Include/cmsis_gcc.h ****   #pragma GCC diagnostic ignored "-Wpacked"
  73:Drivers/CMSIS/Include/cmsis_gcc.h ****   #pragma GCC diagnostic ignored "-Wattributes"
  74:Drivers/CMSIS/Include/cmsis_gcc.h ****   struct __attribute__((packed)) T_UINT32 { uint32_t v; };
  75:Drivers/CMSIS/Include/cmsis_gcc.h ****   #pragma GCC diagnostic pop
  76:Drivers/CMSIS/Include/cmsis_gcc.h ****   #define __UNALIGNED_UINT32(x)                  (((struct T_UINT32 *)(x))->v)
  77:Drivers/CMSIS/Include/cmsis_gcc.h **** #endif
  78:Drivers/CMSIS/Include/cmsis_gcc.h **** #ifndef   __UNALIGNED_UINT16_WRITE
  79:Drivers/CMSIS/Include/cmsis_gcc.h ****   #pragma GCC diagnostic push
  80:Drivers/CMSIS/Include/cmsis_gcc.h ****   #pragma GCC diagnostic ignored "-Wpacked"
  81:Drivers/CMSIS/Include/cmsis_gcc.h ****   #pragma GCC diagnostic ignored "-Wattributes"
  82:Drivers/CMSIS/Include/cmsis_gcc.h ****   __PACKED_STRUCT T_UINT16_WRITE { uint16_t v; };
  83:Drivers/CMSIS/Include/cmsis_gcc.h ****   #pragma GCC diagnostic pop
  84:Drivers/CMSIS/Include/cmsis_gcc.h ****   #define __UNALIGNED_UINT16_WRITE(addr, val)    (void)((((struct T_UINT16_WRITE *)(void *)(addr))-
  85:Drivers/CMSIS/Include/cmsis_gcc.h **** #endif
  86:Drivers/CMSIS/Include/cmsis_gcc.h **** #ifndef   __UNALIGNED_UINT16_READ
  87:Drivers/CMSIS/Include/cmsis_gcc.h ****   #pragma GCC diagnostic push
  88:Drivers/CMSIS/Include/cmsis_gcc.h ****   #pragma GCC diagnostic ignored "-Wpacked"
  89:Drivers/CMSIS/Include/cmsis_gcc.h ****   #pragma GCC diagnostic ignored "-Wattributes"
  90:Drivers/CMSIS/Include/cmsis_gcc.h ****   __PACKED_STRUCT T_UINT16_READ { uint16_t v; };
  91:Drivers/CMSIS/Include/cmsis_gcc.h ****   #pragma GCC diagnostic pop
  92:Drivers/CMSIS/Include/cmsis_gcc.h ****   #define __UNALIGNED_UINT16_READ(addr)          (((const struct T_UINT16_READ *)(const void *)(add
  93:Drivers/CMSIS/Include/cmsis_gcc.h **** #endif
  94:Drivers/CMSIS/Include/cmsis_gcc.h **** #ifndef   __UNALIGNED_UINT32_WRITE
ARM GAS  /run/user/1000/cc4cbKPI.s 			page 10


  95:Drivers/CMSIS/Include/cmsis_gcc.h ****   #pragma GCC diagnostic push
  96:Drivers/CMSIS/Include/cmsis_gcc.h ****   #pragma GCC diagnostic ignored "-Wpacked"
  97:Drivers/CMSIS/Include/cmsis_gcc.h ****   #pragma GCC diagnostic ignored "-Wattributes"
  98:Drivers/CMSIS/Include/cmsis_gcc.h ****   __PACKED_STRUCT T_UINT32_WRITE { uint32_t v; };
  99:Drivers/CMSIS/Include/cmsis_gcc.h ****   #pragma GCC diagnostic pop
 100:Drivers/CMSIS/Include/cmsis_gcc.h ****   #define __UNALIGNED_UINT32_WRITE(addr, val)    (void)((((struct T_UINT32_WRITE *)(void *)(addr))-
 101:Drivers/CMSIS/Include/cmsis_gcc.h **** #endif
 102:Drivers/CMSIS/Include/cmsis_gcc.h **** #ifndef   __UNALIGNED_UINT32_READ
 103:Drivers/CMSIS/Include/cmsis_gcc.h ****   #pragma GCC diagnostic push
 104:Drivers/CMSIS/Include/cmsis_gcc.h ****   #pragma GCC diagnostic ignored "-Wpacked"
 105:Drivers/CMSIS/Include/cmsis_gcc.h ****   #pragma GCC diagnostic ignored "-Wattributes"
 106:Drivers/CMSIS/Include/cmsis_gcc.h ****   __PACKED_STRUCT T_UINT32_READ { uint32_t v; };
 107:Drivers/CMSIS/Include/cmsis_gcc.h ****   #pragma GCC diagnostic pop
 108:Drivers/CMSIS/Include/cmsis_gcc.h ****   #define __UNALIGNED_UINT32_READ(addr)          (((const struct T_UINT32_READ *)(const void *)(add
 109:Drivers/CMSIS/Include/cmsis_gcc.h **** #endif
 110:Drivers/CMSIS/Include/cmsis_gcc.h **** #ifndef   __ALIGNED
 111:Drivers/CMSIS/Include/cmsis_gcc.h ****   #define __ALIGNED(x)                           __attribute__((aligned(x)))
 112:Drivers/CMSIS/Include/cmsis_gcc.h **** #endif
 113:Drivers/CMSIS/Include/cmsis_gcc.h **** #ifndef   __RESTRICT
 114:Drivers/CMSIS/Include/cmsis_gcc.h ****   #define __RESTRICT                             __restrict
 115:Drivers/CMSIS/Include/cmsis_gcc.h **** #endif
 116:Drivers/CMSIS/Include/cmsis_gcc.h **** 
 117:Drivers/CMSIS/Include/cmsis_gcc.h **** 
 118:Drivers/CMSIS/Include/cmsis_gcc.h **** /* ###########################  Core Function Access  ########################### */
 119:Drivers/CMSIS/Include/cmsis_gcc.h **** /** \ingroup  CMSIS_Core_FunctionInterface
 120:Drivers/CMSIS/Include/cmsis_gcc.h ****     \defgroup CMSIS_Core_RegAccFunctions CMSIS Core Register Access Functions
 121:Drivers/CMSIS/Include/cmsis_gcc.h ****   @{
 122:Drivers/CMSIS/Include/cmsis_gcc.h ****  */
 123:Drivers/CMSIS/Include/cmsis_gcc.h **** 
 124:Drivers/CMSIS/Include/cmsis_gcc.h **** /**
 125:Drivers/CMSIS/Include/cmsis_gcc.h ****   \brief   Enable IRQ Interrupts
 126:Drivers/CMSIS/Include/cmsis_gcc.h ****   \details Enables IRQ interrupts by clearing the I-bit in the CPSR.
 127:Drivers/CMSIS/Include/cmsis_gcc.h ****            Can only be executed in Privileged modes.
 128:Drivers/CMSIS/Include/cmsis_gcc.h ****  */
 129:Drivers/CMSIS/Include/cmsis_gcc.h **** __STATIC_FORCEINLINE void __enable_irq(void)
 130:Drivers/CMSIS/Include/cmsis_gcc.h **** {
 131:Drivers/CMSIS/Include/cmsis_gcc.h ****   __ASM volatile ("cpsie i" : : : "memory");
 132:Drivers/CMSIS/Include/cmsis_gcc.h **** }
 133:Drivers/CMSIS/Include/cmsis_gcc.h **** 
 134:Drivers/CMSIS/Include/cmsis_gcc.h **** 
 135:Drivers/CMSIS/Include/cmsis_gcc.h **** /**
 136:Drivers/CMSIS/Include/cmsis_gcc.h ****   \brief   Disable IRQ Interrupts
 137:Drivers/CMSIS/Include/cmsis_gcc.h ****   \details Disables IRQ interrupts by setting the I-bit in the CPSR.
 138:Drivers/CMSIS/Include/cmsis_gcc.h ****            Can only be executed in Privileged modes.
 139:Drivers/CMSIS/Include/cmsis_gcc.h ****  */
 140:Drivers/CMSIS/Include/cmsis_gcc.h **** __STATIC_FORCEINLINE void __disable_irq(void)
  37              		.loc 2 140 27 view .LVU2
  38              	.LBB5:
 141:Drivers/CMSIS/Include/cmsis_gcc.h **** {
 142:Drivers/CMSIS/Include/cmsis_gcc.h ****   __ASM volatile ("cpsid i" : : : "memory");
  39              		.loc 2 142 3 view .LVU3
  40              		.syntax unified
  41              	@ 142 "Drivers/CMSIS/Include/cmsis_gcc.h" 1
  42 0000 72B6     		cpsid i
  43              	@ 0 "" 2
  44              		.thumb
  45              		.syntax unified
ARM GAS  /run/user/1000/cc4cbKPI.s 			page 11


  46              	.L2:
  47              	.LBE5:
  48              	.LBE4:
 385:Core/Src/main.c **** 	while (1)
  49              		.loc 1 385 2 discriminator 1 view .LVU4
 386:Core/Src/main.c **** 	{
 387:Core/Src/main.c **** 	}
  50              		.loc 1 387 2 discriminator 1 view .LVU5
 385:Core/Src/main.c **** 	while (1)
  51              		.loc 1 385 8 discriminator 1 view .LVU6
  52 0002 FEE7     		b	.L2
  53              		.cfi_endproc
  54              	.LFE70:
  56              		.section	.text.SystemClock_Config,"ax",%progbits
  57              		.align	1
  58              		.global	SystemClock_Config
  59              		.syntax unified
  60              		.thumb
  61              		.thumb_func
  63              	SystemClock_Config:
  64              	.LFB69:
 331:Core/Src/main.c **** 	RCC_OscInitTypeDef RCC_OscInitStruct = {0};
  65              		.loc 1 331 1 view -0
  66              		.cfi_startproc
  67              		@ args = 0, pretend = 0, frame = 80
  68              		@ frame_needed = 0, uses_anonymous_args = 0
  69 0000 00B5     		push	{lr}
  70              	.LCFI0:
  71              		.cfi_def_cfa_offset 4
  72              		.cfi_offset 14, -4
  73 0002 95B0     		sub	sp, sp, #84
  74              	.LCFI1:
  75              		.cfi_def_cfa_offset 88
 332:Core/Src/main.c **** 	RCC_ClkInitTypeDef RCC_ClkInitStruct = {0};
  76              		.loc 1 332 2 view .LVU8
 332:Core/Src/main.c **** 	RCC_ClkInitTypeDef RCC_ClkInitStruct = {0};
  77              		.loc 1 332 21 is_stmt 0 view .LVU9
  78 0004 2822     		movs	r2, #40
  79 0006 0021     		movs	r1, #0
  80 0008 0DEB0200 		add	r0, sp, r2
  81 000c FFF7FEFF 		bl	memset
  82              	.LVL0:
 333:Core/Src/main.c **** 	RCC_PeriphCLKInitTypeDef PeriphClkInit = {0};
  83              		.loc 1 333 2 is_stmt 1 view .LVU10
 333:Core/Src/main.c **** 	RCC_PeriphCLKInitTypeDef PeriphClkInit = {0};
  84              		.loc 1 333 21 is_stmt 0 view .LVU11
  85 0010 0023     		movs	r3, #0
  86 0012 0593     		str	r3, [sp, #20]
  87 0014 0693     		str	r3, [sp, #24]
  88 0016 0793     		str	r3, [sp, #28]
  89 0018 0893     		str	r3, [sp, #32]
  90 001a 0993     		str	r3, [sp, #36]
 334:Core/Src/main.c **** 
  91              		.loc 1 334 2 is_stmt 1 view .LVU12
 334:Core/Src/main.c **** 
  92              		.loc 1 334 27 is_stmt 0 view .LVU13
  93 001c 0193     		str	r3, [sp, #4]
ARM GAS  /run/user/1000/cc4cbKPI.s 			page 12


  94 001e 0293     		str	r3, [sp, #8]
  95 0020 0393     		str	r3, [sp, #12]
  96 0022 0493     		str	r3, [sp, #16]
 339:Core/Src/main.c **** 	RCC_OscInitStruct.HSEState = RCC_HSE_ON;
  97              		.loc 1 339 2 is_stmt 1 view .LVU14
 339:Core/Src/main.c **** 	RCC_OscInitStruct.HSEState = RCC_HSE_ON;
  98              		.loc 1 339 35 is_stmt 0 view .LVU15
  99 0024 0122     		movs	r2, #1
 100 0026 0A92     		str	r2, [sp, #40]
 340:Core/Src/main.c **** 	RCC_OscInitStruct.HSEPredivValue = RCC_HSE_PREDIV_DIV1;
 101              		.loc 1 340 2 is_stmt 1 view .LVU16
 340:Core/Src/main.c **** 	RCC_OscInitStruct.HSEPredivValue = RCC_HSE_PREDIV_DIV1;
 102              		.loc 1 340 29 is_stmt 0 view .LVU17
 103 0028 4FF48033 		mov	r3, #65536
 104 002c 0B93     		str	r3, [sp, #44]
 341:Core/Src/main.c **** 	RCC_OscInitStruct.HSIState = RCC_HSI_ON;
 105              		.loc 1 341 2 is_stmt 1 view .LVU18
 342:Core/Src/main.c **** 	RCC_OscInitStruct.PLL.PLLState = RCC_PLL_ON;
 106              		.loc 1 342 2 view .LVU19
 342:Core/Src/main.c **** 	RCC_OscInitStruct.PLL.PLLState = RCC_PLL_ON;
 107              		.loc 1 342 29 is_stmt 0 view .LVU20
 108 002e 0E92     		str	r2, [sp, #56]
 343:Core/Src/main.c **** 	RCC_OscInitStruct.PLL.PLLSource = RCC_PLLSOURCE_HSE;
 109              		.loc 1 343 2 is_stmt 1 view .LVU21
 343:Core/Src/main.c **** 	RCC_OscInitStruct.PLL.PLLSource = RCC_PLLSOURCE_HSE;
 110              		.loc 1 343 33 is_stmt 0 view .LVU22
 111 0030 0222     		movs	r2, #2
 112 0032 1192     		str	r2, [sp, #68]
 344:Core/Src/main.c **** 	RCC_OscInitStruct.PLL.PLLMUL = RCC_PLL_MUL9;
 113              		.loc 1 344 2 is_stmt 1 view .LVU23
 344:Core/Src/main.c **** 	RCC_OscInitStruct.PLL.PLLMUL = RCC_PLL_MUL9;
 114              		.loc 1 344 34 is_stmt 0 view .LVU24
 115 0034 1293     		str	r3, [sp, #72]
 345:Core/Src/main.c **** 	if (HAL_RCC_OscConfig(&RCC_OscInitStruct) != HAL_OK)
 116              		.loc 1 345 2 is_stmt 1 view .LVU25
 345:Core/Src/main.c **** 	if (HAL_RCC_OscConfig(&RCC_OscInitStruct) != HAL_OK)
 117              		.loc 1 345 31 is_stmt 0 view .LVU26
 118 0036 4FF4E013 		mov	r3, #1835008
 119 003a 1393     		str	r3, [sp, #76]
 346:Core/Src/main.c **** 	{
 120              		.loc 1 346 2 is_stmt 1 view .LVU27
 346:Core/Src/main.c **** 	{
 121              		.loc 1 346 6 is_stmt 0 view .LVU28
 122 003c 0AA8     		add	r0, sp, #40
 123 003e FFF7FEFF 		bl	HAL_RCC_OscConfig
 124              	.LVL1:
 346:Core/Src/main.c **** 	{
 125              		.loc 1 346 5 view .LVU29
 126 0042 C0B9     		cbnz	r0, .L8
 353:Core/Src/main.c **** 		|RCC_CLOCKTYPE_PCLK1|RCC_CLOCKTYPE_PCLK2;
 127              		.loc 1 353 2 is_stmt 1 view .LVU30
 353:Core/Src/main.c **** 		|RCC_CLOCKTYPE_PCLK1|RCC_CLOCKTYPE_PCLK2;
 128              		.loc 1 353 30 is_stmt 0 view .LVU31
 129 0044 0F23     		movs	r3, #15
 130 0046 0593     		str	r3, [sp, #20]
 355:Core/Src/main.c **** 	RCC_ClkInitStruct.AHBCLKDivider = RCC_SYSCLK_DIV1;
 131              		.loc 1 355 2 is_stmt 1 view .LVU32
ARM GAS  /run/user/1000/cc4cbKPI.s 			page 13


 355:Core/Src/main.c **** 	RCC_ClkInitStruct.AHBCLKDivider = RCC_SYSCLK_DIV1;
 132              		.loc 1 355 33 is_stmt 0 view .LVU33
 133 0048 0221     		movs	r1, #2
 134 004a 0691     		str	r1, [sp, #24]
 356:Core/Src/main.c **** 	RCC_ClkInitStruct.APB1CLKDivider = RCC_HCLK_DIV2;
 135              		.loc 1 356 2 is_stmt 1 view .LVU34
 356:Core/Src/main.c **** 	RCC_ClkInitStruct.APB1CLKDivider = RCC_HCLK_DIV2;
 136              		.loc 1 356 34 is_stmt 0 view .LVU35
 137 004c 0023     		movs	r3, #0
 138 004e 0793     		str	r3, [sp, #28]
 357:Core/Src/main.c **** 	RCC_ClkInitStruct.APB2CLKDivider = RCC_HCLK_DIV1;
 139              		.loc 1 357 2 is_stmt 1 view .LVU36
 357:Core/Src/main.c **** 	RCC_ClkInitStruct.APB2CLKDivider = RCC_HCLK_DIV1;
 140              		.loc 1 357 35 is_stmt 0 view .LVU37
 141 0050 4FF48062 		mov	r2, #1024
 142 0054 0892     		str	r2, [sp, #32]
 358:Core/Src/main.c **** 
 143              		.loc 1 358 2 is_stmt 1 view .LVU38
 358:Core/Src/main.c **** 
 144              		.loc 1 358 35 is_stmt 0 view .LVU39
 145 0056 0993     		str	r3, [sp, #36]
 360:Core/Src/main.c **** 	{
 146              		.loc 1 360 2 is_stmt 1 view .LVU40
 360:Core/Src/main.c **** 	{
 147              		.loc 1 360 6 is_stmt 0 view .LVU41
 148 0058 05A8     		add	r0, sp, #20
 149 005a FFF7FEFF 		bl	HAL_RCC_ClockConfig
 150              	.LVL2:
 360:Core/Src/main.c **** 	{
 151              		.loc 1 360 5 view .LVU42
 152 005e 60B9     		cbnz	r0, .L9
 364:Core/Src/main.c **** 	PeriphClkInit.UsbClockSelection = RCC_USBCLKSOURCE_PLL_DIV1_5;
 153              		.loc 1 364 2 is_stmt 1 view .LVU43
 364:Core/Src/main.c **** 	PeriphClkInit.UsbClockSelection = RCC_USBCLKSOURCE_PLL_DIV1_5;
 154              		.loc 1 364 37 is_stmt 0 view .LVU44
 155 0060 1023     		movs	r3, #16
 156 0062 0193     		str	r3, [sp, #4]
 365:Core/Src/main.c **** 	if (HAL_RCCEx_PeriphCLKConfig(&PeriphClkInit) != HAL_OK)
 157              		.loc 1 365 2 is_stmt 1 view .LVU45
 365:Core/Src/main.c **** 	if (HAL_RCCEx_PeriphCLKConfig(&PeriphClkInit) != HAL_OK)
 158              		.loc 1 365 34 is_stmt 0 view .LVU46
 159 0064 0023     		movs	r3, #0
 160 0066 0493     		str	r3, [sp, #16]
 366:Core/Src/main.c **** 	{
 161              		.loc 1 366 2 is_stmt 1 view .LVU47
 366:Core/Src/main.c **** 	{
 162              		.loc 1 366 6 is_stmt 0 view .LVU48
 163 0068 01A8     		add	r0, sp, #4
 164 006a FFF7FEFF 		bl	HAL_RCCEx_PeriphCLKConfig
 165              	.LVL3:
 366:Core/Src/main.c **** 	{
 166              		.loc 1 366 5 view .LVU49
 167 006e 30B9     		cbnz	r0, .L10
 370:Core/Src/main.c **** 
 168              		.loc 1 370 1 view .LVU50
 169 0070 15B0     		add	sp, sp, #84
 170              	.LCFI2:
ARM GAS  /run/user/1000/cc4cbKPI.s 			page 14


 171              		.cfi_remember_state
 172              		.cfi_def_cfa_offset 4
 173              		@ sp needed
 174 0072 5DF804FB 		ldr	pc, [sp], #4
 175              	.L8:
 176              	.LCFI3:
 177              		.cfi_restore_state
 348:Core/Src/main.c **** 	}
 178              		.loc 1 348 3 is_stmt 1 view .LVU51
 179 0076 FFF7FEFF 		bl	Error_Handler
 180              	.LVL4:
 181              	.L9:
 362:Core/Src/main.c **** 	}
 182              		.loc 1 362 3 view .LVU52
 183 007a FFF7FEFF 		bl	Error_Handler
 184              	.LVL5:
 185              	.L10:
 368:Core/Src/main.c **** 	}
 186              		.loc 1 368 3 view .LVU53
 187 007e FFF7FEFF 		bl	Error_Handler
 188              	.LVL6:
 189              		.cfi_endproc
 190              	.LFE69:
 192              		.section	.text.main,"ax",%progbits
 193              		.align	1
 194              		.global	main
 195              		.syntax unified
 196              		.thumb
 197              		.thumb_func
 199              	main:
 200              	.LFB68:
  66:Core/Src/main.c **** 	/* USER CODE BEGIN 1 */
 201              		.loc 1 66 1 view -0
 202              		.cfi_startproc
 203              		@ args = 0, pretend = 0, frame = 13192
 204              		@ frame_needed = 0, uses_anonymous_args = 0
 205 0000 10B5     		push	{r4, lr}
 206              	.LCFI4:
 207              		.cfi_def_cfa_offset 8
 208              		.cfi_offset 4, -8
 209              		.cfi_offset 14, -4
 210 0002 ADF54E5D 		sub	sp, sp, #13184
 211              	.LCFI5:
 212              		.cfi_def_cfa_offset 13192
 213 0006 82B0     		sub	sp, sp, #8
 214              	.LCFI6:
 215              		.cfi_def_cfa_offset 13200
  74:Core/Src/main.c **** 
 216              		.loc 1 74 2 view .LVU55
 217 0008 FFF7FEFF 		bl	HAL_Init
 218              	.LVL7:
  81:Core/Src/main.c **** 
 219              		.loc 1 81 2 view .LVU56
 220 000c FFF7FEFF 		bl	SystemClock_Config
 221              	.LVL8:
  88:Core/Src/main.c **** 	MX_USB_DEVICE_Init();
 222              		.loc 1 88 2 view .LVU57
ARM GAS  /run/user/1000/cc4cbKPI.s 			page 15


 223 0010 FFF7FEFF 		bl	MX_GPIO_Init
 224              	.LVL9:
  89:Core/Src/main.c **** 	/* USER CODE BEGIN 2 */
 225              		.loc 1 89 2 view .LVU58
 226 0014 FFF7FEFF 		bl	MX_USB_DEVICE_Init
 227              	.LVL10:
  91:Core/Src/main.c **** {0x20, 0x00, 0x6f, 0x2c, 0x00, 0x00, 0x00, 0x00, 0x00, 0x00, 0x40, 0x01, 0x87, 0x02, 0xd9, 0x02, 0x
 228              		.loc 1 91 1 view .LVU59
  91:Core/Src/main.c **** {0x20, 0x00, 0x6f, 0x2c, 0x00, 0x00, 0x00, 0x00, 0x00, 0x00, 0x40, 0x01, 0x87, 0x02, 0xd9, 0x02, 0x
 229              		.loc 1 91 9 is_stmt 0 view .LVU60
 230 0018 4FF44E52 		mov	r2, #13184
 231 001c 0F49     		ldr	r1, .L17
 232 001e 02A8     		add	r0, sp, #8
 233 0020 FFF7FEFF 		bl	memcpy
 234              	.LVL11:
 302:Core/Src/main.c **** 	uint32_t i = 0;
 235              		.loc 1 302 2 is_stmt 1 view .LVU61
 302:Core/Src/main.c **** 	uint32_t i = 0;
 236              		.loc 1 302 10 is_stmt 0 view .LVU62
 237 0024 01AB     		add	r3, sp, #4
 238 0026 0024     		movs	r4, #0
 239 0028 1C70     		strb	r4, [r3]
 303:Core/Src/main.c **** 
 240              		.loc 1 303 2 is_stmt 1 view .LVU63
 241              	.LVL12:
 309:Core/Src/main.c **** 	while (1)
 242              		.loc 1 309 2 view .LVU64
 243 002a 41F28830 		movw	r0, #5000
 244 002e FFF7FEFF 		bl	HAL_Delay
 245              	.LVL13:
 246 0032 0BE0     		b	.L12
 247              	.LVL14:
 248              	.L16:
 314:Core/Src/main.c **** 			HAL_Delay(500);
 249              		.loc 1 314 4 view .LVU65
 250 0034 4022     		movs	r2, #64
 251 0036 02AB     		add	r3, sp, #8
 252 0038 03EB8411 		add	r1, r3, r4, lsl #6
 253 003c 0848     		ldr	r0, .L17+4
 254 003e FFF7FEFF 		bl	USBD_HID_SendReport
 255              	.LVL15:
 315:Core/Src/main.c **** 			i++;
 256              		.loc 1 315 4 view .LVU66
 257 0042 4FF4FA70 		mov	r0, #500
 258 0046 FFF7FEFF 		bl	HAL_Delay
 259              	.LVL16:
 316:Core/Src/main.c **** 		} else {
 260              		.loc 1 316 4 view .LVU67
 316:Core/Src/main.c **** 		} else {
 261              		.loc 1 316 5 is_stmt 0 view .LVU68
 262 004a 0134     		adds	r4, r4, #1
 263              	.LVL17:
 264              	.L12:
 310:Core/Src/main.c **** 	{
 265              		.loc 1 310 2 is_stmt 1 view .LVU69
 313:Core/Src/main.c **** 			USBD_HID_SendReport(&hUsbDeviceFS, &(data[i][0]), HID_EPIN_SIZE);
 266              		.loc 1 313 3 view .LVU70
ARM GAS  /run/user/1000/cc4cbKPI.s 			page 16


 313:Core/Src/main.c **** 			USBD_HID_SendReport(&hUsbDeviceFS, &(data[i][0]), HID_EPIN_SIZE);
 267              		.loc 1 313 6 is_stmt 0 view .LVU71
 268 004c CB2C     		cmp	r4, #203
 269 004e F1D9     		bls	.L16
 318:Core/Src/main.c **** 		}
 270              		.loc 1 318 4 is_stmt 1 view .LVU72
 271 0050 4022     		movs	r2, #64
 272 0052 01A9     		add	r1, sp, #4
 273 0054 0248     		ldr	r0, .L17+4
 274 0056 FFF7FEFF 		bl	USBD_HID_SendReport
 275              	.LVL18:
 276 005a F7E7     		b	.L12
 277              	.L18:
 278              		.align	2
 279              	.L17:
 280 005c 00000000 		.word	.LC0
 281 0060 00000000 		.word	hUsbDeviceFS
 282              		.cfi_endproc
 283              	.LFE68:
 285              		.section	.rodata
 286              		.align	2
 287              	.LC0:
 288 0000 20006F2C 		.ascii	" \000o,\000\000\000\000\000\000@\001\207\002\331\002"
 288      00000000 
 288      00004001 
 288      8702D902 
 289 0010 D9020000 		.ascii	"\331\002\000\000\000\000\000\000\000\000\000\000\000"
 289      00000000 
 289      00000000 
 289      00
 290 001d 00000000 		.ascii	"\000\000\000\000\000\000\000\000\000\000\000\2213\334"
 290      00000000 
 290      00000091 
 290      33DC
 291 002b 606E36DC 		.ascii	"`n6\334`\000"
 291      6000
 292 0031 00000000 		.space	15
 292      00000000 
 292      00000000 
 292      000000
 293 0040 2000702C 		.ascii	" \000p,\000\000\000\000\000\000\327\000%\002\331\002"
 293      00000000 
 293      0000D700 
 293      2502D902 
 294 0050 D9020000 		.ascii	"\331\002\000\000\000\000\000\000\000\000\000\000\000"
 294      00000000 
 294      00000000 
 294      00
 295 005d 00000000 		.ascii	"\000\000\000\000\000\000\000\000\000\000\000\225R\334"
 295      00000000 
 295      00000095 
 295      52DC
 296 006b 607255DC 		.ascii	"`rU\334`\000"
 296      6000
 297 0071 00000000 		.space	15
 297      00000000 
 297      00000000 
ARM GAS  /run/user/1000/cc4cbKPI.s 			page 17


 297      000000
 298 0080 2000712C 		.ascii	" \000q,\000\000\000\000\000\000\203\000\321\001\331"
 298      00000000 
 298      00008300 
 298      D101D9
 299 008f 02D90200 		.ascii	"\002\331\002\000\000\000\000\000\000\000\000\000\000"
 299      00000000 
 299      00000000 
 299      00
 300 009c 00000000 		.ascii	"\000\000\000\000\000\000\000\000\000\000\000\000\326"
 300      00000000 
 300      00000000 
 300      D6
 301 00a9 71DC60B3 		.ascii	"q\334`\263t\334`\000"
 301      74DC6000 
 302 00b1 00000000 		.space	15
 302      00000000 
 302      00000000 
 302      000000
 303 00c0 2000722C 		.ascii	" \000r,\000\000\000\000\000\0005\000\203\001\331\002"
 303      00000000 
 303      00003500 
 303      8301D902 
 304 00d0 D9020000 		.ascii	"\331\002\000\000\000\000\000\000\000\000\000\000\000"
 304      00000000 
 304      00000000 
 304      00
 305 00dd 00000000 		.ascii	"\000\000\000\000\000\000\000\000\000\000\0006\221\334"
 305      00000000 
 305      00000036 
 305      91DC
 306 00eb 601394DC 		.ascii	"`\023\224\334`\000"
 306      6000
 307 00f1 00000000 		.space	15
 307      00000000 
 307      00000000 
 307      000000
 308 0100 2000732C 		.ascii	" \000s,\000\000\000\000\000\000\370\377\017\001\331"
 308      00000000 
 308      0000F8FF 
 308      0F01D9
 309 010f 02D90200 		.ascii	"\002\331\002\000\000\000\000\000\000\000\000\000\000"
 309      00000000 
 309      00000000 
 309      00
 310 011c 00000000 		.ascii	"\000\000\000\000\000\000\000\000\000\000\000\000w\260"
 310      00000000 
 310      00000000 
 310      77B0
 311 012a DC6054B3 		.ascii	"\334`T\263\334`\000"
 311      DC6000
 312 0131 00000000 		.space	15
 312      00000000 
 312      00000000 
 312      000000
 313 0140 2000742C 		.ascii	" \000t,\000\000\000\000\000\000\276\377\206\000\331"
 313      00000000 
ARM GAS  /run/user/1000/cc4cbKPI.s 			page 18


 313      0000BEFF 
 313      8600D9
 314 014f 02D90200 		.ascii	"\002\331\002\000\000\000\000\000\000\000\000\000\000"
 314      00000000 
 314      00000000 
 314      00
 315 015c 00000000 		.ascii	"\000\000\000\000\000\000\000\000\000\000\000\000\232"
 315      00000000 
 315      00000000 
 315      9A
 316 0169 CFDC6077 		.ascii	"\317\334`w\322\334`\000"
 316      D2DC6000 
 317 0171 00000000 		.space	15
 317      00000000 
 317      00000000 
 317      000000
 318 0180 2000752C 		.ascii	" \000u,\000\000\000\000\000\000\227\377\366\377\331"
 318      00000000 
 318      000097FF 
 318      F6FFD9
 319 018f 02D90200 		.ascii	"\002\331\002\000\000\000\000\000\000\000\000\000\000"
 319      00000000 
 319      00000000 
 319      00
 320 019c 00000000 		.ascii	"\000\000\000\000\000\000\000\000\000\000\000\000\333"
 320      00000000 
 320      00000000 
 320      DB
 321 01a9 EEDC6099 		.ascii	"\356\334`\231\361\334`\000"
 321      F1DC6000 
 322 01b1 00000000 		.space	15
 322      00000000 
 322      00000000 
 322      000000
 323 01c0 2000762C 		.ascii	" \000v,\000\000\000\000\000\000\227\377a\377\331\002"
 323      00000000 
 323      000097FF 
 323      61FFD902 
 324 01d0 D9020000 		.ascii	"\331\002\000\000\000\000\000\000\000\000\000\000\000"
 324      00000000 
 324      00000000 
 324      00
 325 01dd 00000000 		.ascii	"\000\000\000\000\000\000\000\000\000\000\000;\016\335"
 325      00000000 
 325      0000003B 
 325      0EDD
 326 01eb 601811DD 		.ascii	"`\030\021\335`\000"
 326      6000
 327 01f1 00000000 		.space	15
 327      00000000 
 327      00000000 
 327      000000
 328 0200 2000772C 		.ascii	" \000w,\000\000\000\000\000\000:\377\340\376\331\002"
 328      00000000 
 328      00003AFF 
 328      E0FED902 
 329 0210 D9020000 		.ascii	"\331\002\000\000\000\000\000\000\000\000\000\000\000"
ARM GAS  /run/user/1000/cc4cbKPI.s 			page 19


 329      00000000 
 329      00000000 
 329      00
 330 021d 00000000 		.ascii	"\000\000\000\000\000\000\000\000\000\000\000]-\335`"
 330      00000000 
 330      0000005D 
 330      2DDD60
 331 022c 3A30DD60 		.ascii	":0\335`\000"
 331      00
 332 0231 00000000 		.space	15
 332      00000000 
 332      00000000 
 332      000000
 333 0240 2000782C 		.ascii	" \000x,\000\000\000\000\000\000\376\376u\376\331\002"
 333      00000000 
 333      0000FEFE 
 333      75FED902 
 334 0250 D9020000 		.ascii	"\331\002\000\000\000\000\000\000\000\000\000\000\000"
 334      00000000 
 334      00000000 
 334      00
 335 025d 00000000 		.ascii	"\000\000\000\000\000\000\000\000\000\000\000\275L\335"
 335      00000000 
 335      000000BD 
 335      4CDD
 336 026b 609A4FDD 		.ascii	"`\232O\335`\000"
 336      6000
 337 0271 00000000 		.space	15
 337      00000000 
 337      00000000 
 337      000000
 338 0280 2000792C 		.ascii	" \000y,\000\000\000\000\000\000\311\376\033\376\331"
 338      00000000 
 338      0000C9FE 
 338      1BFED9
 339 028f 02D90200 		.ascii	"\002\331\002\000\000\000\000\000\000\000\000\000\000"
 339      00000000 
 339      00000000 
 339      00
 340 029c 00000000 		.ascii	"\000\000\000\000\000\000\000\000\000\000\000\000\376"
 340      00000000 
 340      00000000 
 340      FE
 341 02a9 6BDD60DB 		.ascii	"k\335`\333n\335`\000"
 341      6EDD6000 
 342 02b1 00000000 		.space	15
 342      00000000 
 342      00000000 
 342      000000
 343 02c0 20007A2C 		.ascii	" \000z,\000\000\000\000\000\000\311\376\316\375\331"
 343      00000000 
 343      0000C9FE 
 343      CEFDD9
 344 02cf 02D90200 		.ascii	"\002\331\002\000\000\000\000\000\000\000\000\000\000"
 344      00000000 
 344      00000000 
 344      00
ARM GAS  /run/user/1000/cc4cbKPI.s 			page 20


 345 02dc 00000000 		.ascii	"\000\000\000\000\000\000\000\000\000\000\000\000\002"
 345      00000000 
 345      00000000 
 345      02
 346 02e9 8BDD60DF 		.ascii	"\213\335`\337\215\335`\000"
 346      8DDD6000 
 347 02f1 00000000 		.space	15
 347      00000000 
 347      00000000 
 347      000000
 348 0300 20007B2C 		.ascii	" \000{,\000\000\000\000\000\000}\376\225\375\331\002"
 348      00000000 
 348      00007DFE 
 348      95FDD902 
 349 0310 D9020000 		.ascii	"\331\002\000\000\000\000\000\000\000\000\000\000\000"
 349      00000000 
 349      00000000 
 349      00
 350 031d 00000000 		.ascii	"\000\000\000\000\000\000\000\000\000\000\000b\252\335"
 350      00000000 
 350      00000062 
 350      AADD
 351 032b 603FADDD 		.ascii	"`?\255\335`\000"
 351      6000
 352 0331 00000000 		.space	15
 352      00000000 
 352      00000000 
 352      000000
 353 0340 20007C2C 		.ascii	" \000|,\000\000\000\000\000\000b\376c\375\331\002\331"
 353      00000000 
 353      000062FE 
 353      63FDD902 
 353      D9
 354 0351 02000000 		.ascii	"\002\000\000\000\000\000\000\000\000\000\000\000\000"
 354      00000000 
 354      00000000 
 354      00
 355 035e 00000000 		.ascii	"\000\000\000\000\000\000\000\000\000\000\243\311\335"
 355      00000000 
 355      0000A3C9 
 355      DD
 356 036b 6080CCDD 		.ascii	"`\200\314\335`\000"
 356      6000
 357 0371 00000000 		.space	15
 357      00000000 
 357      00000000 
 357      000000
 358 0380 20007D2C 		.ascii	" \000},\000\000\000\000\000\000b\376$\375\331\002\331"
 358      00000000 
 358      000062FE 
 358      24FDD902 
 358      D9
 359 0391 02000000 		.ascii	"\002\000\000\000\000\000\000\000\000\000\000\000\000"
 359      00000000 
 359      00000000 
 359      00
 360 039e 00000000 		.ascii	"\000\000\000\000\000\000\000\000\000\000%\010\336`\344"
ARM GAS  /run/user/1000/cc4cbKPI.s 			page 21


 360      00000000 
 360      00002508 
 360      DE60E4
 361 03ad 0ADE6000 		.ascii	"\012\336`\000"
 362 03b1 00000000 		.space	15
 362      00000000 
 362      00000000 
 362      000000
 363 03c0 20007E2C 		.ascii	" \000~,\000\000\000\000\000\000b\376\373\374\331\002"
 363      00000000 
 363      000062FE 
 363      FBFCD902 
 364 03d0 D9020000 		.ascii	"\331\002\000\000\000\000\000\000\000\000\000\000\000"
 364      00000000 
 364      00000000 
 364      00
 365 03dd 00000000 		.ascii	"\000\000\000\000\000\000\000\000\000\000\000\247F\336"
 365      00000000 
 365      000000A7 
 365      46DE
 366 03eb 606649DE 		.ascii	"`fI\336`\000"
 366      6000
 367 03f1 00000000 		.space	15
 367      00000000 
 367      00000000 
 367      000000
 368 0400 20007F2C 		.ascii	" \000\177,\000\000\000\000\000\000b\376\303\374\331"
 368      00000000 
 368      000062FE 
 368      C3FCD9
 369 040f 02D90200 		.ascii	"\002\331\002\000\000\000\000\000\000\000\000\000\000"
 369      00000000 
 369      00000000 
 369      00
 370 041c 00000000 		.ascii	"\000\000\000\000\000\000\000\000\000\000\000\000\254"
 370      00000000 
 370      00000000 
 370      AC
 371 0429 C3DE6089 		.ascii	"\303\336`\211\306\336`\000"
 371      C6DE6000 
 372 0431 00000000 		.space	15
 372      00000000 
 372      00000000 
 372      000000
 373 0440 2000802C 		.ascii	" \000\200,\000\000\000\000\000\000b\376\231\374\331"
 373      00000000 
 373      000062FE 
 373      99FCD9
 374 044f 02D90200 		.ascii	"\002\331\002\000\000\000\000\000\000\000\000\000\000"
 374      00000000 
 374      00000000 
 374      00
 375 045c 00000000 		.ascii	"\000\000\000\000\000\000\000\000\000\000\000\000\024"
 375      00000000 
 375      00000000 
 375      14
 376 0469 7FDF60D3 		.ascii	"\177\337`\323\201\337`\000"
ARM GAS  /run/user/1000/cc4cbKPI.s 			page 22


 376      81DF6000 
 377 0471 00000000 		.space	15
 377      00000000 
 377      00000000 
 377      000000
 378 0480 2000812C 		.ascii	" \000\201,\000\000\000\000\000\000\035\376\231\374\331"
 378      00000000 
 378      00001DFE 
 378      99FCD9
 379 048f 02D90200 		.ascii	"\002\331\002\000\000\000\000\000\000\000\000\000\000"
 379      00000000 
 379      00000000 
 379      00
 380 049c 00000000 		.ascii	"\000\000\000\000\000\000\000\000\000\000\000\000\377"
 380      00000000 
 380      00000000 
 380      FF
 381 04a9 78E060DC 		.ascii	"x\340`\334{\340`\000"
 381      7BE06000 
 382 04b1 00000000 		.space	15
 382      00000000 
 382      00000000 
 382      000000
 383 04c0 2000822C 		.ascii	" \000\202,\000\000\000\000\000\000\035\376W\374\331"
 383      00000000 
 383      00001DFE 
 383      57FCD9
 384 04cf 02D90200 		.ascii	"\002\331\002\000\000\000\000\000\000\000\000\000\000"
 384      00000000 
 384      00000000 
 384      00
 385 04dc 00000000 		.ascii	"\000\000\000\000\000\000\000\000\000\000\000\000\341"
 385      00000000 
 385      00000000 
 385      E1
 386 04e9 D6E060BE 		.ascii	"\326\340`\276\331\340`\000"
 386      D9E06000 
 387 04f1 00000000 		.space	15
 387      00000000 
 387      00000000 
 387      000000
 388 0500 2000832C 		.ascii	" \000\203,\000\000\000\000\000\000\375\3758\374\331"
 388      00000000 
 388      0000FDFD 
 388      38FCD9
 389 050f 02D90200 		.ascii	"\002\331\002\000\000\000\000\000\000\000\000\000\000"
 389      00000000 
 389      00000000 
 389      00
 390 051c 00000000 		.ascii	"\000\000\000\000\000\000\000\000\000\000\000\000A\366"
 390      00000000 
 390      00000000 
 390      41F6
 391 052a E060FFF8 		.ascii	"\340`\377\370\340`\000"
 391      E06000
 392 0531 00000000 		.space	15
 392      00000000 
ARM GAS  /run/user/1000/cc4cbKPI.s 			page 23


 392      00000000 
 392      000000
 393 0540 2000842C 		.ascii	" \000\204,\000\000\000\000\000\000\375\375\361\373\331"
 393      00000000 
 393      0000FDFD 
 393      F1FBD9
 394 054f 02D90200 		.ascii	"\002\331\002\000\000\000\000\000\000\000\000\000\000"
 394      00000000 
 394      00000000 
 394      00
 395 055c 00000000 		.ascii	"\000\000\000\000\000\000\000\000\000\000\000\000\345"
 395      00000000 
 395      00000000 
 395      E5
 396 0569 53E160A4 		.ascii	"S\341`\244V\341`\000"
 396      56E16000 
 397 0571 00000000 		.space	15
 397      00000000 
 397      00000000 
 397      000000
 398 0580 2000852C 		.ascii	" \000\205,\000\000\000\000\000\000\375\375\307\373\331"
 398      00000000 
 398      0000FDFD 
 398      C7FBD9
 399 058f 02D90200 		.ascii	"\002\331\002\000\000\000\000\000\000\000\000\000\000"
 399      00000000 
 399      00000000 
 399      00
 400 059c 00000000 		.ascii	"\000\000\000\000\000\000\000\000\000\000\000\000h\222"
 400      00000000 
 400      00000000 
 400      6892
 401 05aa E1604595 		.ascii	"\341`E\225\341`\000"
 401      E16000
 402 05b1 00000000 		.space	15
 402      00000000 
 402      00000000 
 402      000000
 403 05c0 2000862C 		.ascii	" \000\206,\000\000\000\000\000\000\375\375\214\373\331"
 403      00000000 
 403      0000FDFD 
 403      8CFBD9
 404 05cf 02D90200 		.ascii	"\002\331\002\000\000\000\000\000\000\000\000\000\000"
 404      00000000 
 404      00000000 
 404      00
 405 05dc 00000000 		.ascii	"\000\000\000\000\000\000\000\000\000\000\000\000\356"
 405      00000000 
 405      00000000 
 405      EE
 406 05e9 EFE160CB 		.ascii	"\357\341`\313\362\341`\000"
 406      F2E16000 
 407 05f1 00000000 		.space	15
 407      00000000 
 407      00000000 
 407      000000
 408 0600 2000872C 		.ascii	" \000\207,\000\000\000\000\000\000\375\375d\373\331"
ARM GAS  /run/user/1000/cc4cbKPI.s 			page 24


 408      00000000 
 408      0000FDFD 
 408      64FBD9
 409 060f 02D90200 		.ascii	"\002\331\002\000\000\000\000\000\000\000\000\000\000"
 409      00000000 
 409      00000000 
 409      00
 410 061c 00000000 		.ascii	"\000\000\000\000\000\000\000\000\000\000\000\000\320"
 410      00000000 
 410      00000000 
 410      D0
 411 0629 4DE2608E 		.ascii	"M\342`\216P\342`\000"
 411      50E26000 
 412 0631 00000000 		.space	15
 412      00000000 
 412      00000000 
 412      000000
 413 0640 2000882C 		.ascii	" \000\210,\000\000\000\000\000\000\375\375'\373\331"
 413      00000000 
 413      0000FDFD 
 413      27FBD9
 414 064f 02D90200 		.ascii	"\002\331\002\000\000\000\000\000\000\000\000\000\000"
 414      00000000 
 414      00000000 
 414      00
 415 065c 00000000 		.ascii	"\000\000\000\000\000\000\000\000\000\000\000\000\223"
 415      00000000 
 415      00000000 
 415      93
 416 0669 ABE26070 		.ascii	"\253\342`p\256\342`\000"
 416      AEE26000 
 417 0671 00000000 		.space	15
 417      00000000 
 417      00000000 
 417      000000
 418 0680 2000892C 		.ascii	" \000\211,\000\000\000\000\000\000\375\375\003\373\331"
 418      00000000 
 418      0000FDFD 
 418      03FBD9
 419 068f 02D90200 		.ascii	"\002\331\002\000\000\000\000\000\000\000\000\000\000"
 419      00000000 
 419      00000000 
 419      00
 420 069c 00000000 		.ascii	"\000\000\000\000\000\000\000\000\000\000\000\0004\352"
 420      00000000 
 420      00000000 
 420      34EA
 421 06aa E260F3EC 		.ascii	"\342`\363\354\342`\000"
 421      E26000
 422 06b1 00000000 		.space	15
 422      00000000 
 422      00000000 
 422      000000
 423 06c0 20008A2C 		.ascii	" \000\212,\000\000\000\000\000\000\375\375\306\372\331"
 423      00000000 
 423      0000FDFD 
 423      C6FAD9
ARM GAS  /run/user/1000/cc4cbKPI.s 			page 25


 424 06cf 02D90200 		.ascii	"\002\331\002\000\000\000\000\000\000\000\000\000\000"
 424      00000000 
 424      00000000 
 424      00
 425 06dc 00000000 		.ascii	"\000\000\000\000\000\000\000\000\000\000\000\000[\206"
 425      00000000 
 425      00000000 
 425      5B86
 426 06ea E3601A89 		.ascii	"\343`\032\211\343`\000"
 426      E36000
 427 06f1 00000000 		.space	15
 427      00000000 
 427      00000000 
 427      000000
 428 0700 20008B2C 		.ascii	" \000\213,\000\000\000\000\000\000\375\375k\373\331"
 428      00000000 
 428      0000FDFD 
 428      6BFBD9
 429 070f 02D90200 		.ascii	"\002\331\002\000\000\000\000\000\000\000\000\000\000"
 429      00000000 
 429      00000000 
 429      00
 430 071c 00000000 		.ascii	"\000\000\000\000\000\000\000\000\000\000\000\000\016"
 430      00000000 
 430      00000000 
 430      0E
 431 0729 5BE560CC 		.ascii	"[\345`\314]\345`\000"
 431      5DE56000 
 432 0731 00000000 		.space	15
 432      00000000 
 432      00000000 
 432      000000
 433 0740 20008C2C 		.ascii	" \000\214,\000\000\000\000\000\000\375\375\200\373\331"
 433      00000000 
 433      0000FDFD 
 433      80FBD9
 434 074f 02D90200 		.ascii	"\002\331\002\000\000\000\000\000\000\000\000\000\000"
 434      00000000 
 434      00000000 
 434      00
 435 075c 00000000 		.ascii	"\000\000\000\000\000\000\000\000\000\000\000\000Oz\345"
 435      00000000 
 435      00000000 
 435      4F7AE5
 436 076b 602C7DE5 		.ascii	"`,}\345`\000"
 436      6000
 437 0771 00000000 		.space	15
 437      00000000 
 437      00000000 
 437      000000
 438 0780 20008D2C 		.ascii	" \000\215,\000\000\000\000\000\000\375\375\314\373\331"
 438      00000000 
 438      0000FDFD 
 438      CCFBD9
 439 078f 02D90200 		.ascii	"\002\331\002\000\000\000\000\000\000\000\000\000\000"
 439      00000000 
 439      00000000 
ARM GAS  /run/user/1000/cc4cbKPI.s 			page 26


 439      00
 440 079c 00000000 		.ascii	"\000\000\000\000\000\000\000\000\000\000\000\0006U\346"
 440      00000000 
 440      00000000 
 440      3655E6
 441 07ab 60F457E6 		.ascii	"`\364W\346`\000"
 441      6000
 442 07b1 00000000 		.space	15
 442      00000000 
 442      00000000 
 442      000000
 443 07c0 20008E2C 		.ascii	" \000\216,\000\000\000\000\000\000\375\375\342\373\331"
 443      00000000 
 443      0000FDFD 
 443      E2FBD9
 444 07cf 02D90200 		.ascii	"\002\331\002\000\000\000\000\000\000\000\000\000\000"
 444      00000000 
 444      00000000 
 444      00
 445 07dc 00000000 		.ascii	"\000\000\000\000\000\000\000\000\000\000\000\000wt\346"
 445      00000000 
 445      00000000 
 445      7774E6
 446 07eb 605477E6 		.ascii	"`Tw\346`\000"
 446      6000
 447 07f1 00000000 		.space	15
 447      00000000 
 447      00000000 
 447      000000
 448 0800 20008F2C 		.ascii	" \000\217, \000\000\000\000\000\375\3750\374\331\002"
 448      20000000 
 448      0000FDFD 
 448      30FCD902 
 449 0810 D9020000 		.ascii	"\331\002\000\000\000\000\000\000\000\000\000\000\000"
 449      00000000 
 449      00000000 
 449      00
 450 081d 00000000 		.ascii	"\000\000\000\000\000\000\000\000\000\000\000\246\254"
 450      00000000 
 450      000000A6 
 450      AC
 451 082a E76065AF 		.ascii	"\347`e\257\347`\000"
 451      E76000
 452 0831 00000000 		.space	15
 452      00000000 
 452      00000000 
 452      000000
 453 0840 2000902C 		.ascii	" \000\220,\000\000\000\000\000\000\375\3750\374\331"
 453      00000000 
 453      0000FDFD 
 453      30FCD9
 454 084f 02D90200 		.ascii	"\002\331\002\000\000\000\000\000\000\000\000\000\000"
 454      00000000 
 454      00000000 
 454      00
 455 085c 00000000 		.ascii	"\000\000\000\000\000\000\000\000\000\000\000\000;\337"
 455      00000000 
ARM GAS  /run/user/1000/cc4cbKPI.s 			page 27


 455      00000000 
 455      3BDF
 456 086a E960F9E1 		.ascii	"\351`\371\341\351`\000"
 456      E96000
 457 0871 00000000 		.space	15
 457      00000000 
 457      00000000 
 457      000000
 458 0880 2000912C 		.ascii	" \000\221,\000\000\000\000\000\000\375\375N\374\331"
 458      00000000 
 458      0000FDFD 
 458      4EFCD9
 459 088f 02D90200 		.ascii	"\002\331\002\000\000\000\000\000\000\000\000\000\000"
 459      00000000 
 459      00000000 
 459      00
 460 089c 00000000 		.ascii	"\000\000\000\000\000\000\000\000\000\000\000\000^\\"
 460      00000000 
 460      00000000 
 460      5E5C
 461 08aa EA601C5F 		.ascii	"\352`\034_\352`\000"
 461      EA6000
 462 08b1 00000000 		.space	15
 462      00000000 
 462      00000000 
 462      000000
 463 08c0 2000922C 		.ascii	" \000\222,\000\000\000\000\000\000\375\375\305\374\331"
 463      00000000 
 463      0000FDFD 
 463      C5FCD9
 464 08cf 02D90200 		.ascii	"\002\331\002\000\000\000\000\000\000\000\000\000\000"
 464      00000000 
 464      00000000 
 464      00
 465 08dc 00000000 		.ascii	"\000\000\000\000\000\000\000\000\000\000\000\000\340"
 465      00000000 
 465      00000000 
 465      E0
 466 08e9 9AEA609F 		.ascii	"\232\352`\237\235\352`\000"
 466      9DEA6000 
 467 08f1 00000000 		.space	15
 467      00000000 
 467      00000000 
 467      000000
 468 0900 2000932C 		.ascii	" \000\223,\000\000\000\000\000\000\375\375\015\375\331"
 468      00000000 
 468      0000FDFD 
 468      0DFDD9
 469 090f 02D90200 		.ascii	"\002\331\002\000\000\000\000\000\000\000\000\000\000"
 469      00000000 
 469      00000000 
 469      00
 470 091c 00000000 		.ascii	"\000\000\000\000\000\000\000\000\000\000\000\000!\272"
 470      00000000 
 470      00000000 
 470      21BA
 471 092a EA60E0BC 		.ascii	"\352`\340\274\352`\000"
ARM GAS  /run/user/1000/cc4cbKPI.s 			page 28


 471      EA6000
 472 0931 00000000 		.space	15
 472      00000000 
 472      00000000 
 472      000000
 473 0940 2000942C 		.ascii	" \000\224,\000\000\000\000\000\000\375\375\\\375\331"
 473      00000000 
 473      0000FDFD 
 473      5CFDD9
 474 094f 02D90200 		.ascii	"\002\331\002\000\000\000\000\000\000\000\000\000\000"
 474      00000000 
 474      00000000 
 474      00
 475 095c 00000000 		.ascii	"\000\000\000\000\000\000\000\000\000\000\000\000\201"
 475      00000000 
 475      00000000 
 475      81
 476 0969 D9EA605E 		.ascii	"\331\352`^\334\352`\000"
 476      DCEA6000 
 477 0971 00000000 		.space	15
 477      00000000 
 477      00000000 
 477      000000
 478 0980 2000952C 		.ascii	" \000\225,\000\000\000\000\000\000\375\375\245\375\331"
 478      00000000 
 478      0000FDFD 
 478      A5FDD9
 479 098f 02D90200 		.ascii	"\002\331\002\000\000\000\000\000\000\000\000\000\000"
 479      00000000 
 479      00000000 
 479      00
 480 099c 00000000 		.ascii	"\000\000\000\000\000\000\000\000\000\000\000\000\244"
 480      00000000 
 480      00000000 
 480      A4
 481 09a9 F8EA6081 		.ascii	"\370\352`\201\373\352`\000"
 481      FBEA6000 
 482 09b1 00000000 		.space	15
 482      00000000 
 482      00000000 
 482      000000
 483 09c0 2000962C 		.ascii	" \000\226,\000\000\000\000\000\000\375\375\364\375\331"
 483      00000000 
 483      0000FDFD 
 483      F4FDD9
 484 09cf 02D90200 		.ascii	"\002\331\002\000\000\000\000\000\000\000\000\000\000"
 484      00000000 
 484      00000000 
 484      00
 485 09dc 00000000 		.ascii	"\000\000\000\000\000\000\000\000\000\000\000\000\306"
 485      00000000 
 485      00000000 
 485      C6
 486 09e9 17EB6085 		.ascii	"\027\353`\205\032\353`\000"
 486      1AEB6000 
 487 09f1 00000000 		.space	15
 487      00000000 
ARM GAS  /run/user/1000/cc4cbKPI.s 			page 29


 487      00000000 
 487      000000
 488 0a00 2000972C 		.ascii	" \000\227,\000\000\000\000\000\000\375\375I\376\331"
 488      00000000 
 488      0000FDFD 
 488      49FED9
 489 0a0f 02D90200 		.ascii	"\002\331\002\000\000\000\000\000\000\000\000\000\000"
 489      00000000 
 489      00000000 
 489      00
 490 0a1c 00000000 		.ascii	"\000\000\000\000\000\000\000\000\000\000\000\000E7\353"
 490      00000000 
 490      00000000 
 490      4537EB
 491 0a2b 60033AEB 		.ascii	"`\003:\353`\000"
 491      6000
 492 0a31 00000000 		.space	15
 492      00000000 
 492      00000000 
 492      000000
 493 0a40 2000982C 		.ascii	" \000\230,\000\000\000\000\000\000\375\375\214\376\331"
 493      00000000 
 493      0000FDFD 
 493      8CFED9
 494 0a4f 02D90200 		.ascii	"\002\331\002\000\000\000\000\000\000\000\000\000\000"
 494      00000000 
 494      00000000 
 494      00
 495 0a5c 00000000 		.ascii	"\000\000\000\000\000\000\000\000\000\000\000\000IV\353"
 495      00000000 
 495      00000000 
 495      4956EB
 496 0a6b 600759EB 		.ascii	"`\007Y\353`\000"
 496      6000
 497 0a71 00000000 		.space	15
 497      00000000 
 497      00000000 
 497      000000
 498 0a80 2000992C 		.ascii	" \000\231,\000\000\000\000\000\000\375\375\302\376\331"
 498      00000000 
 498      0000FDFD 
 498      C2FED9
 499 0a8f 02D90200 		.ascii	"\002\331\002\000\000\000\000\000\000\000\000\000\000"
 499      00000000 
 499      00000000 
 499      00
 500 0a9c 00000000 		.ascii	"\000\000\000\000\000\000\000\000\000\000\000\000\307"
 500      00000000 
 500      00000000 
 500      C7
 501 0aa9 75EB60A4 		.ascii	"u\353`\244x\353`\000"
 501      78EB6000 
 502 0ab1 00000000 		.space	15
 502      00000000 
 502      00000000 
 502      000000
 503 0ac0 20009A2C 		.ascii	" \000\232,\000\000\000\000\000\000\375\375\355\376\331"
ARM GAS  /run/user/1000/cc4cbKPI.s 			page 30


 503      00000000 
 503      0000FDFD 
 503      EDFED9
 504 0acf 02D90200 		.ascii	"\002\331\002\000\000\000\000\000\000\000\000\000\000"
 504      00000000 
 504      00000000 
 504      00
 505 0adc 00000000 		.ascii	"\000\000\000\000\000\000\000\000\000\000\000\000\313"
 505      00000000 
 505      00000000 
 505      CB
 506 0ae9 94EB60A8 		.ascii	"\224\353`\250\227\353`\000"
 506      97EB6000 
 507 0af1 00000000 		.space	15
 507      00000000 
 507      00000000 
 507      000000
 508 0b00 20009B2C 		.ascii	" \000\233,\000\000\000\000\000\000\375\375&\377\331"
 508      00000000 
 508      0000FDFD 
 508      26FFD9
 509 0b0f 02D90200 		.ascii	"\002\331\002\000\000\000\000\000\000\000\000\000\000"
 509      00000000 
 509      00000000 
 509      00
 510 0b1c 00000000 		.ascii	"\000\000\000\000\000\000\000\000\000\000\000\000M\323"
 510      00000000 
 510      00000000 
 510      4DD3
 511 0b2a EB600CD6 		.ascii	"\353`\014\326\353`\000"
 511      EB6000
 512 0b31 00000000 		.space	15
 512      00000000 
 512      00000000 
 512      000000
 513 0b40 20009C2C 		.ascii	" \000\234,\000\000\000\000\000\000\375\375Z\377\331"
 513      00000000 
 513      0000FDFD 
 513      5AFFD9
 514 0b4f 02D90200 		.ascii	"\002\331\002\000\000\000\000\000\000\000\000\000\000"
 514      00000000 
 514      00000000 
 514      00
 515 0b5c 00000000 		.ascii	"\000\000\000\000\000\000\000\000\000\000\000\000/1\354"
 515      00000000 
 515      00000000 
 515      2F31EC
 516 0b6b 60ED33EC 		.ascii	"`\3553\354`\000"
 516      6000
 517 0b71 00000000 		.space	15
 517      00000000 
 517      00000000 
 517      000000
 518 0b80 20009D2C 		.ascii	" \000\235,\000\000\000\000\000\000\375\375\302\376\331"
 518      00000000 
 518      0000FDFD 
 518      C2FED9
ARM GAS  /run/user/1000/cc4cbKPI.s 			page 31


 519 0b8f 02D90200 		.ascii	"\002\331\002\000\000\000\000\000\000\000\000\000\000"
 519      00000000 
 519      00000000 
 519      00
 520 0b9c 00000000 		.ascii	"\000\000\000\000\000\000\000\000\000\000\000\000\015"
 520      00000000 
 520      00000000 
 520      0D
 521 0ba9 E3F860EA 		.ascii	"\343\370`\352\345\370`\000"
 521      E5F86000 
 522 0bb1 00000000 		.space	15
 522      00000000 
 522      00000000 
 522      000000
 523 0bc0 20009E2C 		.ascii	" \000\236,\000\000\000\000\000\000\375\375\271\376\331"
 523      00000000 
 523      0000FDFD 
 523      B9FED9
 524 0bcf 02D90200 		.ascii	"\002\331\002\000\000\000\000\000\000\000\000\000\000"
 524      00000000 
 524      00000000 
 524      00
 525 0bdc 00000000 		.ascii	"\000\000\000\000\000\000\000\000\000\000\000\000l\002"
 525      00000000 
 525      00000000 
 525      6C02
 526 0bea F9602B05 		.ascii	"\371`+\005\371`\000"
 526      F96000
 527 0bf1 00000000 		.space	15
 527      00000000 
 527      00000000 
 527      000000
 528 0c00 20009F2C 		.ascii	" \000\237,\000\000\000\000\000\000\375\374\271\376\331"
 528      00000000 
 528      0000FDFC 
 528      B9FED9
 529 0c0f 02D90200 		.ascii	"\002\331\002\000\000\000\000\000\000\000\000\000\000"
 529      00000000 
 529      00000000 
 529      00
 530 0c1c 00000000 		.ascii	"\000\000\000\000\000\000\000\000\000\000\000\000\026"
 530      00000000 
 530      00000000 
 530      16
 531 0c29 DDF960D4 		.ascii	"\335\371`\324\337\371`\000"
 531      DFF96000 
 532 0c31 00000000 		.space	15
 532      00000000 
 532      00000000 
 532      000000
 533 0c40 2000A02C 		.ascii	" \000\240,\000\000\000\000\000\000~\373\271\376\331"
 533      00000000 
 533      00007EFB 
 533      B9FED9
 534 0c4f 02D90200 		.ascii	"\002\331\002\000\000\000\000\000\000\000\000\000\000"
 534      00000000 
 534      00000000 
ARM GAS  /run/user/1000/cc4cbKPI.s 			page 32


 534      00
 535 0c5c 00000000 		.ascii	"\000\000\000\000\000\000\000\000\000\000\000\000W\374"
 535      00000000 
 535      00000000 
 535      57FC
 536 0c6a F96034FF 		.ascii	"\371`4\377\371`\000"
 536      F96000
 537 0c71 00000000 		.space	15
 537      00000000 
 537      00000000 
 537      000000
 538 0c80 2000A12C 		.ascii	" \000\241,\000\000\000\000\000\000\342\366\211\377\331"
 538      00000000 
 538      0000E2F6 
 538      89FFD9
 539 0c8f 02D90200 		.ascii	"\002\331\002\000\000\000\000\000\000\000\000\000\000"
 539      00000000 
 539      00000000 
 539      00
 540 0c9c 00000000 		.ascii	"\000\000\000\000\000\000\000\000\000\000\000\000\230"
 540      00000000 
 540      00000000 
 540      98
 541 0ca9 1BFA6057 		.ascii	"\033\372`W\036\372`\000"
 541      1EFA6000 
 542 0cb1 00000000 		.space	15
 542      00000000 
 542      00000000 
 542      000000
 543 0cc0 2000A22C 		.ascii	" \000\242,\000\000\000\000\000\000\016\304\306\000\331"
 543      00000000 
 543      00000EC4 
 543      C600D9
 544 0ccf 02D90200 		.ascii	"\002\331\002\000\000\000\000\000\000\000\000\000\000"
 544      00000000 
 544      00000000 
 544      00
 545 0cdc 00000000 		.ascii	"\000\000\000\000\000\000\000\000\000\000\000\000\331"
 545      00000000 
 545      00000000 
 545      D9
 546 0ce9 3AFA6098 		.ascii	":\372`\230=\372`\000"
 546      3DFA6000 
 547 0cf1 00000000 		.space	15
 547      00000000 
 547      00000000 
 547      000000
 548 0d00 2000A32C 		.ascii	" \000\243,\000\000\000\000\000\000m\226\\\002\331\002"
 548      00000000 
 548      00006D96 
 548      5C02D902 
 549 0d10 D9020000 		.ascii	"\331\002\000\000\000\000\000\000\000\000\000\000\000"
 549      00000000 
 549      00000000 
 549      00
 550 0d1d 00000000 		.ascii	"\000\000\000\000\000\000\000\000\000\000\0009Z\372`"
 550      00000000 
ARM GAS  /run/user/1000/cc4cbKPI.s 			page 33


 550      00000039 
 550      5AFA60
 551 0d2c 165DFA60 		.ascii	"\026]\372`\000"
 551      00
 552 0d31 00000000 		.space	15
 552      00000000 
 552      00000000 
 552      000000
 553 0d40 2000A42C 		.ascii	" \000\244,\000\000\000\000\000\000\000\200G\004\331"
 553      00000000 
 553      00000080 
 553      4704D9
 554 0d4f 02D90200 		.ascii	"\002\331\002\000\000\000\000\000\000\000\000\000\000"
 554      00000000 
 554      00000000 
 554      00
 555 0d5c 00000000 		.ascii	"\000\000\000\000\000\000\000\000\000\000\000\000\\y"
 555      00000000 
 555      00000000 
 555      5C79
 556 0d6a FA60397C 		.ascii	"\372`9|\372`\000"
 556      FA6000
 557 0d71 00000000 		.space	15
 557      00000000 
 557      00000000 
 557      000000
 558 0d80 2000A52C 		.ascii	" \000\245,\000\000\000\000\000\000\000\200\257\005\331"
 558      00000000 
 558      00000080 
 558      AF05D9
 559 0d8f 02D90200 		.ascii	"\002\331\002\000\000\000\000\000\000\000\000\000\000"
 559      00000000 
 559      00000000 
 559      00
 560 0d9c 00000000 		.ascii	"\000\000\000\000\000\000\000\000\000\000\000\000\235"
 560      00000000 
 560      00000000 
 560      9D
 561 0da9 98FA607A 		.ascii	"\230\372`z\233\372`\000"
 561      9BFA6000 
 562 0db1 00000000 		.space	15
 562      00000000 
 562      00000000 
 562      000000
 563 0dc0 2000A62C 		.ascii	" \000\246,\000\000\000\000\000\000\000\200\227\006\331"
 563      00000000 
 563      00000080 
 563      9706D9
 564 0dcf 02D90200 		.ascii	"\002\331\002\000\000\000\000\000\000\000\000\000\000"
 564      00000000 
 564      00000000 
 564      00
 565 0ddc 00000000 		.ascii	"\000\000\000\000\000\000\000\000\000\000\000\000\336"
 565      00000000 
 565      00000000 
 565      DE
 566 0de9 B7FA60BB 		.ascii	"\267\372`\273\272\372`\000"
ARM GAS  /run/user/1000/cc4cbKPI.s 			page 34


 566      BAFA6000 
 567 0df1 00000000 		.space	15
 567      00000000 
 567      00000000 
 567      000000
 568 0e00 2000A72C 		.ascii	" \000\247,\000\000\000\000\000\000\000\200\322\006\331"
 568      00000000 
 568      00000080 
 568      D206D9
 569 0e0f 02D90200 		.ascii	"\002\331\002\000\000\000\000\000\000\000\000\000\000"
 569      00000000 
 569      00000000 
 569      00
 570 0e1c 00000000 		.ascii	"\000\000\000\000\000\000\000\000\000\000\000\000\037"
 570      00000000 
 570      00000000 
 570      1F
 571 0e29 D7FA60DD 		.ascii	"\327\372`\335\331\372`\000"
 571      D9FA6000 
 572 0e31 00000000 		.space	15
 572      00000000 
 572      00000000 
 572      000000
 573 0e40 2000A82C 		.ascii	" \000\250,\000\000\000\000\000\000\000\200\244\005\331"
 573      00000000 
 573      00000080 
 573      A405D9
 574 0e4f 02D90200 		.ascii	"\002\331\002\000\000\000\000\000\000\000\000\000\000"
 574      00000000 
 574      00000000 
 574      00
 575 0e5c 00000000 		.ascii	"\000\000\000\000\000\000\000\000\000\000\000\000\241"
 575      00000000 
 575      00000000 
 575      A1
 576 0e69 15FB6060 		.ascii	"\025\373``\030\373`\000"
 576      18FB6000 
 577 0e71 00000000 		.space	15
 577      00000000 
 577      00000000 
 577      000000
 578 0e80 2000A92C 		.ascii	" \000\251,\000\000\000\000\000\000\000\200\346\004\331"
 578      00000000 
 578      00000080 
 578      E604D9
 579 0e8f 02D90200 		.ascii	"\002\331\002\000\000\000\000\000\000\000\000\000\000"
 579      00000000 
 579      00000000 
 579      00
 580 0e9c 00000000 		.ascii	"\000\000\000\000\000\000\000\000\000\000\000\000\342"
 580      00000000 
 580      00000000 
 580      E2
 581 0ea9 34FB60A1 		.ascii	"4\373`\2417\373`\000"
 581      37FB6000 
 582 0eb1 00000000 		.space	15
 582      00000000 
ARM GAS  /run/user/1000/cc4cbKPI.s 			page 35


 582      00000000 
 582      000000
 583 0ec0 2000AA2C 		.ascii	" \000\252,\000\000\000\000\000\000\000\200H\004\331"
 583      00000000 
 583      00000080 
 583      4804D9
 584 0ecf 02D90200 		.ascii	"\002\331\002\000\000\000\000\000\000\000\000\000\000"
 584      00000000 
 584      00000000 
 584      00
 585 0edc 00000000 		.ascii	"\000\000\000\000\000\000\000\000\000\000\000\000BT\373"
 585      00000000 
 585      00000000 
 585      4254FB
 586 0eeb 600057FB 		.ascii	"`\000W\373`\000"
 586      6000
 587 0ef1 00000000 		.space	15
 587      00000000 
 587      00000000 
 587      000000
 588 0f00 2000AB2C 		.ascii	" \000\253,\000\000\000\000\000\000\000\200\304\003\331"
 588      00000000 
 588      00000080 
 588      C403D9
 589 0f0f 02D90200 		.ascii	"\002\331\002\000\000\000\000\000\000\000\000\000\000"
 589      00000000 
 589      00000000 
 589      00
 590 0f1c 00000000 		.ascii	"\000\000\000\000\000\000\000\000\000\000\000\000es\373"
 590      00000000 
 590      00000000 
 590      6573FB
 591 0f2b 604276FB 		.ascii	"`Bv\373`\000"
 591      6000
 592 0f31 00000000 		.space	15
 592      00000000 
 592      00000000 
 592      000000
 593 0f40 2000AC2C 		.ascii	" \000\254,\000\000\000\000\000\000\000\200[\003\331"
 593      00000000 
 593      00000080 
 593      5B03D9
 594 0f4f 02D90200 		.ascii	"\002\331\002\000\000\000\000\000\000\000\000\000\000"
 594      00000000 
 594      00000000 
 594      00
 595 0f5c 00000000 		.ascii	"\000\000\000\000\000\000\000\000\000\000\000\000\304"
 595      00000000 
 595      00000000 
 595      C4
 596 0f69 92FB6083 		.ascii	"\222\373`\203\225\373`\000"
 596      95FB6000 
 597 0f71 00000000 		.space	15
 597      00000000 
 597      00000000 
 597      000000
 598 0f80 2000AD2C 		.ascii	" \000\255,\000\000\000\000\000\000\000\200\007\003\331"
ARM GAS  /run/user/1000/cc4cbKPI.s 			page 36


 598      00000000 
 598      00000080 
 598      0703D9
 599 0f8f 02D90200 		.ascii	"\002\331\002\000\000\000\000\000\000\000\000\000\000"
 599      00000000 
 599      00000000 
 599      00
 600 0f9c 00000000 		.ascii	"\000\000\000\000\000\000\000\000\000\000\000\000\006"
 600      00000000 
 600      00000000 
 600      06
 601 0fa9 B2FB60E2 		.ascii	"\262\373`\342\264\373`\000"
 601      B4FB6000 
 602 0fb1 00000000 		.space	15
 602      00000000 
 602      00000000 
 602      000000
 603 0fc0 2000AE2C 		.ascii	" \000\256,\000\000\000\000\000\000\000\200\276\002\331"
 603      00000000 
 603      00000080 
 603      BE02D9
 604 0fcf 02D90200 		.ascii	"\002\331\002\000\000\000\000\000\000\000\000\000\000"
 604      00000000 
 604      00000000 
 604      00
 605 0fdc 00000000 		.ascii	"\000\000\000\000\000\000\000\000\000\000\000\000G\321"
 605      00000000 
 605      00000000 
 605      47D1
 606 0fea FB6024D4 		.ascii	"\373`$\324\373`\000"
 606      FB6000
 607 0ff1 00000000 		.space	15
 607      00000000 
 607      00000000 
 607      000000
 608 1000 2000AF2C 		.ascii	" \000\257,\000\000\000\000\000\000\000\200y\002\331"
 608      00000000 
 608      00000080 
 608      7902D9
 609 100f 02D90200 		.ascii	"\002\331\002\000\000\000\000\000\000\000\000\000\000"
 609      00000000 
 609      00000000 
 609      00
 610 101c 00000000 		.ascii	"\000\000\000\000\000\000\000\000\000\000\000\000K\360"
 610      00000000 
 610      00000000 
 610      4BF0
 611 102a FB6009F3 		.ascii	"\373`\011\363\373`\000"
 611      FB6000
 612 1031 00000000 		.space	15
 612      00000000 
 612      00000000 
 612      000000
 613 1040 2000B02C 		.ascii	" \000\260,\000\000\000\000\000\000\000\200\351\001\331"
 613      00000000 
 613      00000080 
 613      E901D9
ARM GAS  /run/user/1000/cc4cbKPI.s 			page 37


 614 104f 02D90200 		.ascii	"\002\331\002\000\000\000\000\000\000\000\000\000\000"
 614      00000000 
 614      00000000 
 614      00
 615 105c 00000000 		.ascii	"\000\000\000\000\000\000\000\000\000\000\000\000\214"
 615      00000000 
 615      00000000 
 615      8C
 616 1069 0FFC6069 		.ascii	"\017\374`i\022\374`\000"
 616      12FC6000 
 617 1071 00000000 		.space	15
 617      00000000 
 617      00000000 
 617      000000
 618 1080 2000B12C 		.ascii	" \000\261,\000\000\000\000\000\000\000\200q\001\331"
 618      00000000 
 618      00000080 
 618      7101D9
 619 108f 02D90200 		.ascii	"\002\331\002\000\000\000\000\000\000\000\000\000\000"
 619      00000000 
 619      00000000 
 619      00
 620 109c 00000000 		.ascii	"\000\000\000\000\000\000\000\000\000\000\000\000\315"
 620      00000000 
 620      00000000 
 620      CD
 621 10a9 2EFC60AA 		.ascii	".\374`\2521\374`\000"
 621      31FC6000 
 622 10b1 00000000 		.space	15
 622      00000000 
 622      00000000 
 622      000000
 623 10c0 2000B22C 		.ascii	" \000\262,\000\000\000\000\000\000\000\200\013\001\331"
 623      00000000 
 623      00000080 
 623      0B01D9
 624 10cf 02D90200 		.ascii	"\002\331\002\000\000\000\000\000\000\000\000\000\000"
 624      00000000 
 624      00000000 
 624      00
 625 10dc 00000000 		.ascii	"\000\000\000\000\000\000\000\000\000\000\000\000-N\374"
 625      00000000 
 625      00000000 
 625      2D4EFC
 626 10eb 60EB50FC 		.ascii	"`\353P\374`\000"
 626      6000
 627 10f1 00000000 		.space	15
 627      00000000 
 627      00000000 
 627      000000
 628 1100 2000B32C 		.ascii	" \000\263,\000\000\000\000\000\000\000\200\332\000\331"
 628      00000000 
 628      00000080 
 628      DA00D9
 629 110f 02D90200 		.ascii	"\002\331\002\000\000\000\000\000\000\000\000\000\000"
 629      00000000 
 629      00000000 
ARM GAS  /run/user/1000/cc4cbKPI.s 			page 38


 629      00
 630 111c 00000000 		.ascii	"\000\000\000\000\000\000\000\000\000\000\000\000\214"
 630      00000000 
 630      00000000 
 630      8C
 631 1129 6DFC604B 		.ascii	"m\374`Kp\374`\000"
 631      70FC6000 
 632 1131 00000000 		.space	15
 632      00000000 
 632      00000000 
 632      000000
 633 1140 2000B42C 		.ascii	" \000\264,\000\000\000\000\000\000N\201\332\000\331"
 633      00000000 
 633      00004E81 
 633      DA00D9
 634 114f 02D90200 		.ascii	"\002\331\002\000\000\000\000\000\000\000\000\000\000"
 634      00000000 
 634      00000000 
 634      00
 635 115c 00000000 		.ascii	"\000\000\000\000\000\000\000\000\000\000\000\000\315"
 635      00000000 
 635      00000000 
 635      CD
 636 1169 8CFC60AA 		.ascii	"\214\374`\252\217\374`\000"
 636      8FFC6000 
 637 1171 00000000 		.space	15
 637      00000000 
 637      00000000 
 637      000000
 638 1180 2000B52C 		.ascii	" \000\265,\000\000\000\000\000\000R\233\326\001\331"
 638      00000000 
 638      0000529B 
 638      D601D9
 639 118f 02D90200 		.ascii	"\002\331\002\000\000\000\000\000\000\000\000\000\000"
 639      00000000 
 639      00000000 
 639      00
 640 119c 00000000 		.ascii	"\000\000\000\000\000\000\000\000\000\000\000\000\322"
 640      00000000 
 640      00000000 
 640      D2
 641 11a9 ABFC60EC 		.ascii	"\253\374`\354\256\374`\000"
 641      AEFC6000 
 642 11b1 00000000 		.space	15
 642      00000000 
 642      00000000 
 642      000000
 643 11c0 2000B62C 		.ascii	" \000\266,\000\000\000\000\000\000T\240\374\002\331"
 643      00000000 
 643      000054A0 
 643      FC02D9
 644 11cf 02D90200 		.ascii	"\002\331\002\000\000\000\000\000\000\000\000\000\000"
 644      00000000 
 644      00000000 
 644      00
 645 11dc 00000000 		.ascii	"\000\000\000\000\000\000\000\000\000\000\000\000\023"
 645      00000000 
ARM GAS  /run/user/1000/cc4cbKPI.s 			page 39


 645      00000000 
 645      13
 646 11e9 CBFC60D1 		.ascii	"\313\374`\321\315\374`\000"
 646      CDFC6000 
 647 11f1 00000000 		.space	15
 647      00000000 
 647      00000000 
 647      000000
 648 1200 2000B72C 		.ascii	" \000\267,\000\000\000\000\000\000<\316U\004\331\002"
 648      00000000 
 648      00003CCE 
 648      5504D902 
 649 1210 D9020000 		.ascii	"\331\002\000\000\000\000\000\000\000\000\000\000\000"
 649      00000000 
 649      00000000 
 649      00
 650 121d 00000000 		.ascii	"\000\000\000\000\000\000\000\000\000\000\000T\352\374"
 650      00000000 
 650      00000054 
 650      EAFC
 651 122b 6012EDFC 		.ascii	"`\022\355\374`\000"
 651      6000
 652 1231 00000000 		.space	15
 652      00000000 
 652      00000000 
 652      000000
 653 1240 2000B82C 		.ascii	" \000\270,\000\000\000\000\000\000L\323#\005\331\002"
 653      00000000 
 653      00004CD3 
 653      2305D902 
 654 1250 D9020000 		.ascii	"\331\002\000\000\000\000\000\000\000\000\000\000\000"
 654      00000000 
 654      00000000 
 654      00
 655 125d 00000000 		.ascii	"\000\000\000\000\000\000\000\000\000\000\000\225\011"
 655      00000000 
 655      00000095 
 655      09
 656 126a FD60720C 		.ascii	"\375`r\014\375`\000"
 656      FD6000
 657 1271 00000000 		.space	15
 657      00000000 
 657      00000000 
 657      000000
 658 1280 2000B92C 		.ascii	" \000\271,\000\000\000\000\000\000y\373n\005\331\002"
 658      00000000 
 658      000079FB 
 658      6E05D902 
 659 1290 D9020000 		.ascii	"\331\002\000\000\000\000\000\000\000\000\000\000\000"
 659      00000000 
 659      00000000 
 659      00
 660 129d 00000000 		.ascii	"\000\000\000\000\000\000\000\000\000\000\000\326(\375"
 660      00000000 
 660      000000D6 
 660      28FD
 661 12ab 60D22BFD 		.ascii	"`\322+\375`\000"
ARM GAS  /run/user/1000/cc4cbKPI.s 			page 40


 661      6000
 662 12b1 00000000 		.space	15
 662      00000000 
 662      00000000 
 662      000000
 663 12c0 2000BA2C 		.ascii	" \000\272,\000\000\000\000\000\000\204\373\244\005\331"
 663      00000000 
 663      000084FB 
 663      A405D9
 664 12cf 02D90200 		.ascii	"\002\331\002\000\000\000\000\000\000\000\000\000\000"
 664      00000000 
 664      00000000 
 664      00
 665 12dc 00000000 		.ascii	"\000\000\000\000\000\000\000\000\000\000\000\000TH\375"
 665      00000000 
 665      00000000 
 665      5448FD
 666 12eb 60134BFD 		.ascii	"`\023K\375`\000"
 666      6000
 667 12f1 00000000 		.space	15
 667      00000000 
 667      00000000 
 667      000000
 668 1300 2000BB2C 		.ascii	" \000\273,\000\000\000\000\000\000\204\373\333\005\331"
 668      00000000 
 668      000084FB 
 668      DB05D9
 669 130f 02D90200 		.ascii	"\002\331\002\000\000\000\000\000\000\000\000\000\000"
 669      00000000 
 669      00000000 
 669      00
 670 131c 00000000 		.ascii	"\000\000\000\000\000\000\000\000\000\000\000\000Xg\375"
 670      00000000 
 670      00000000 
 670      5867FD
 671 132b 60356AFD 		.ascii	"`5j\375`\000"
 671      6000
 672 1331 00000000 		.space	15
 672      00000000 
 672      00000000 
 672      000000
 673 1340 2000BC2C 		.ascii	" \000\274,\000\000\000\000\000\000\204\373\037\006\331"
 673      00000000 
 673      000084FB 
 673      1F06D9
 674 134f 02D90200 		.ascii	"\002\331\002\000\000\000\000\000\000\000\000\000\000"
 674      00000000 
 674      00000000 
 674      00
 675 135c 00000000 		.ascii	"\000\000\000\000\000\000\000\000\000\000\000\000\371"
 675      00000000 
 675      00000000 
 675      F9
 676 1369 A5FD60D6 		.ascii	"\245\375`\326\250\375`\000"
 676      A8FD6000 
 677 1371 00000000 		.space	15
 677      00000000 
ARM GAS  /run/user/1000/cc4cbKPI.s 			page 41


 677      00000000 
 677      000000
 678 1380 2000BD2C 		.ascii	" \000\275,\000\000\000\000\000\000\204\373@\006\331"
 678      00000000 
 678      000084FB 
 678      4006D9
 679 138f 02D90200 		.ascii	"\002\331\002\000\000\000\000\000\000\000\000\000\000"
 679      00000000 
 679      00000000 
 679      00
 680 139c 00000000 		.ascii	"\000\000\000\000\000\000\000\000\000\000\000\000]\344"
 680      00000000 
 680      00000000 
 680      5DE4
 681 13aa FD601BE7 		.ascii	"\375`\033\347\375`\000"
 681      FD6000
 682 13b1 00000000 		.space	15
 682      00000000 
 682      00000000 
 682      000000
 683 13c0 2000BE2C 		.ascii	" \000\276,\000\000\000\000\000\000\251\374@\006\331"
 683      00000000 
 683      0000A9FC 
 683      4006D9
 684 13cf 02D90200 		.ascii	"\002\331\002\000\000\000\000\000\000\000\000\000\000"
 684      00000000 
 684      00000000 
 684      00
 685 13dc 00000000 		.ascii	"\000\000\000\000\000\000\000\000\000\000\000\000\344"
 685      00000000 
 685      00000000 
 685      E4
 686 13e9 9FFE60C1 		.ascii	"\237\376`\301\242\376`\000"
 686      A2FE6000 
 687 13f1 00000000 		.space	15
 687      00000000 
 687      00000000 
 687      000000
 688 1400 2000BF2C 		.ascii	" \000\277,\000\000\000\000\000\000\241\375@\006\331"
 688      00000000 
 688      0000A1FD 
 688      4006D9
 689 140f 02D90200 		.ascii	"\002\331\002\000\000\000\000\000\000\000\000\000\000"
 689      00000000 
 689      00000000 
 689      00
 690 141c 00000000 		.ascii	"\000\000\000\000\000\000\000\000\000\000\000\000C\277"
 690      00000000 
 690      00000000 
 690      43BF
 691 142a FE6002C2 		.ascii	"\376`\002\302\376`\000"
 691      FE6000
 692 1431 00000000 		.space	15
 692      00000000 
 692      00000000 
 692      000000
 693 1440 2000C02C 		.ascii	" \000\300,\000\000\000\000\000\000\204\376@\006\331"
ARM GAS  /run/user/1000/cc4cbKPI.s 			page 42


 693      00000000 
 693      000084FE 
 693      4006D9
 694 144f 02D90200 		.ascii	"\002\331\002\000\000\000\000\000\000\000\000\000\000"
 694      00000000 
 694      00000000 
 694      00
 695 145c 00000000 		.ascii	"\000\000\000\000\000\000\000\000\000\000\000\000H\336"
 695      00000000 
 695      00000000 
 695      48DE
 696 146a FE6024E1 		.ascii	"\376`$\341\376`\000"
 696      FE6000
 697 1471 00000000 		.space	15
 697      00000000 
 697      00000000 
 697      000000
 698 1480 2000C12C 		.ascii	" \000\301,\000\000\000\000\000\000?\377@\006\331\002"
 698      00000000 
 698      00003FFF 
 698      4006D902 
 699 1490 D9020000 		.ascii	"\331\002\000\000\000\000\000\000\000\000\000\000\000"
 699      00000000 
 699      00000000 
 699      00
 700 149d 00000000 		.ascii	"\000\000\000\000\000\000\000\000\000\000\000\247\375"
 700      00000000 
 700      000000A7 
 700      FD
 701 14aa FE608400 		.ascii	"\376`\204\000\377`\000"
 701      FF6000
 702 14b1 00000000 		.space	15
 702      00000000 
 702      00000000 
 702      000000
 703 14c0 2000C22C 		.ascii	" \000\302,\000\000\000\000\000\000\333\377@\006\331"
 703      00000000 
 703      0000DBFF 
 703      4006D9
 704 14cf 02D90200 		.ascii	"\002\331\002\000\000\000\000\000\000\000\000\000\000"
 704      00000000 
 704      00000000 
 704      00
 705 14dc 00000000 		.ascii	"\000\000\000\000\000\000\000\000\000\000\000\000\350"
 705      00000000 
 705      00000000 
 705      E8
 706 14e9 1CFF605E 		.ascii	"\034\377`^ \377`\000"
 706      20FF6000 
 707 14f1 00000000 		.space	15
 707      00000000 
 707      00000000 
 707      000000
 708 1500 2000C32C 		.ascii	" \000\303,\000\000\000\000\000\000Q\000@\006\331\002"
 708      00000000 
 708      00005100 
 708      4006D902 
ARM GAS  /run/user/1000/cc4cbKPI.s 			page 43


 709 1510 D9020000 		.ascii	"\331\002\000\000\000\000\000\000\000\000\000\000\000"
 709      00000000 
 709      00000000 
 709      00
 710 151d 00000000 		.ascii	"\000\000\000\000\000\000\000\000\000\000\000H<\377`"
 710      00000000 
 710      00000048 
 710      3CFF60
 711 152c 253FFF60 		.ascii	"%?\377`\000"
 711      00
 712 1531 00000000 		.space	15
 712      00000000 
 712      00000000 
 712      000000
 713 1540 2000C42C 		.ascii	" \000\304,\000\000\000\000\000\000\257\000\273\005\331"
 713      00000000 
 713      0000AF00 
 713      BB05D9
 714 154f 02D90200 		.ascii	"\002\331\002\000\000\000\000\000\000\000\000\000\000"
 714      00000000 
 714      00000000 
 714      00
 715 155c 00000000 		.ascii	"\000\000\000\000\000\000\000\000\000\000\000\000k[\377"
 715      00000000 
 715      00000000 
 715      6B5BFF
 716 156b 60485EFF 		.ascii	"`H^\377`\000"
 716      6000
 717 1571 00000000 		.space	15
 717      00000000 
 717      00000000 
 717      000000
 718 1580 2000C52C 		.ascii	" \000\305,\000\000\000\000\000\000\000\001\266\005\331"
 718      00000000 
 718      00000001 
 718      B605D9
 719 158f 02D90200 		.ascii	"\002\331\002\000\000\000\000\000\000\000\000\000\000"
 719      00000000 
 719      00000000 
 719      00
 720 159c 00000000 		.ascii	"\000\000\000\000\000\000\000\000\000\000\000\000\215"
 720      00000000 
 720      00000000 
 720      8D
 721 15a9 7AFF6089 		.ascii	"z\377`\211}\377`\000"
 721      7DFF6000 
 722 15b1 00000000 		.space	15
 722      00000000 
 722      00000000 
 722      000000
 723 15c0 2000C62C 		.ascii	" \000\306,\000\000\000\000\000\000A\001\266\005\331"
 723      00000000 
 723      00004101 
 723      B605D9
 724 15cf 02D90200 		.ascii	"\002\331\002\000\000\000\000\000\000\000\000\000\000"
 724      00000000 
 724      00000000 
ARM GAS  /run/user/1000/cc4cbKPI.s 			page 44


 724      00
 725 15dc 00000000 		.ascii	"\000\000\000\000\000\000\000\000\000\000\000\000\355"
 725      00000000 
 725      00000000 
 725      ED
 726 15e9 99FF60AB 		.ascii	"\231\377`\253\234\377`\000"
 726      9CFF6000 
 727 15f1 00000000 		.space	15
 727      00000000 
 727      00000000 
 727      000000
 728 1600 2000C72C 		.ascii	" \000\307,\000\000\000\000\000\000u\001\266\005\331"
 728      00000000 
 728      00007501 
 728      B605D9
 729 160f 02D90200 		.ascii	"\002\331\002\000\000\000\000\000\000\000\000\000\000"
 729      00000000 
 729      00000000 
 729      00
 730 161c 00000000 		.ascii	"\000\000\000\000\000\000\000\000\000\000\000\000\017"
 730      00000000 
 730      00000000 
 730      0F
 731 1629 B9FF60EC 		.ascii	"\271\377`\354\273\377`\000"
 731      BBFF6000 
 732 1631 00000000 		.space	15
 732      00000000 
 732      00000000 
 732      000000
 733 1640 2000C82C 		.ascii	" \000\310,\000\000\000\000\000\000\301\001\266\005\331"
 733      00000000 
 733      0000C101 
 733      B605D9
 734 164f 02D90200 		.ascii	"\002\331\002\000\000\000\000\000\000\000\000\000\000"
 734      00000000 
 734      00000000 
 734      00
 735 165c 00000000 		.ascii	"\000\000\000\000\000\000\000\000\000\000\000\000\260"
 735      00000000 
 735      00000000 
 735      B0
 736 1669 F7FF606F 		.ascii	"\367\377`o\372\377`\000"
 736      FAFF6000 
 737 1671 00000000 		.space	15
 737      00000000 
 737      00000000 
 737      000000
 738 1680 2000C92C 		.ascii	" \000\311,\000\000\000\000\000\000\334\001\266\005\331"
 738      00000000 
 738      0000DC01 
 738      B605D9
 739 168f 02D90200 		.ascii	"\002\331\002\000\000\000\000\000\000\000\000\000\000"
 739      00000000 
 739      00000000 
 739      00
 740 169c 00000000 		.ascii	"\000\000\000\000\000\000\000\000\000\000\000\000\361"
 740      00000000 
ARM GAS  /run/user/1000/cc4cbKPI.s 			page 45


 740      00000000 
 740      F1
 741 16a9 160061CE 		.ascii	"\026\000a\316\031\000a\000"
 741      19006100 
 742 16b1 00000000 		.space	15
 742      00000000 
 742      00000000 
 742      000000
 743 16c0 2000CA2C 		.ascii	" \000\312,\000\000\000\000\000\000%\002*\005\331\002"
 743      00000000 
 743      00002502 
 743      2A05D902 
 744 16d0 D9020000 		.ascii	"\331\002\000\000\000\000\000\000\000\000\000\000\000"
 744      00000000 
 744      00000000 
 744      00
 745 16dd 00000000 		.ascii	"\000\000\000\000\000\000\000\000\000\000\000\373\020"
 745      00000000 
 745      000000FB 
 745      10
 746 16ea 0161B913 		.ascii	"\001a\271\023\001a\000"
 746      016100
 747 16f1 00000000 		.space	15
 747      00000000 
 747      00000000 
 747      000000
 748 1700 2000CB2C 		.ascii	" \000\313,\000\000\000\000\000\000%\002\347\004\331"
 748      00000000 
 748      00002502 
 748      E704D9
 749 170f 02D90200 		.ascii	"\002\331\002\000\000\000\000\000\000\000\000\000\000"
 749      00000000 
 749      00000000 
 749      00
 750 171c 00000000 		.ascii	"\000\000\000\000\000\000\000\000\000\000\000\000\035"
 750      00000000 
 750      00000000 
 750      1D
 751 1729 300161FA 		.ascii	"0\001a\3722\001a\000"
 751      32016100 
 752 1731 00000000 		.space	15
 752      00000000 
 752      00000000 
 752      000000
 753 1740 2000CC2C 		.ascii	" \000\314,\000\000\000\000\000\000%\002\231\004\331"
 753      00000000 
 753      00002502 
 753      9904D9
 754 174f 02D90200 		.ascii	"\002\331\002\000\000\000\000\000\000\000\000\000\000"
 754      00000000 
 754      00000000 
 754      00
 755 175c 00000000 		.ascii	"\000\000\000\000\000\000\000\000\000\000\000\000}O\001"
 755      00000000 
 755      00000000 
 755      7D4F01
 756 176b 615A5201 		.ascii	"aZR\001a\000"
ARM GAS  /run/user/1000/cc4cbKPI.s 			page 46


 756      6100
 757 1771 00000000 		.space	15
 757      00000000 
 757      00000000 
 757      000000
 758 1780 2000CD2C 		.ascii	" \000\315,\000\000\000\000\000\000%\002H\004\331\002"
 758      00000000 
 758      00002502 
 758      4804D902 
 759 1790 D9020000 		.ascii	"\331\002\000\000\000\000\000\000\000\000\000\000\000"
 759      00000000 
 759      00000000 
 759      00
 760 179d 00000000 		.ascii	"\000\000\000\000\000\000\000\000\000\000\000\276n\001"
 760      00000000 
 760      000000BE 
 760      6E01
 761 17ab 619B7101 		.ascii	"a\233q\001a\000"
 761      6100
 762 17b1 00000000 		.space	15
 762      00000000 
 762      00000000 
 762      000000
 763 17c0 2000CE2C 		.ascii	" \000\316,\000\000\000\000\000\000%\002\366\003\331"
 763      00000000 
 763      00002502 
 763      F603D9
 764 17cf 02D90200 		.ascii	"\002\331\002\000\000\000\000\000\000\000\000\000\000"
 764      00000000 
 764      00000000 
 764      00
 765 17dc 00000000 		.ascii	"\000\000\000\000\000\000\000\000\000\000\000\000\302"
 765      00000000 
 765      00000000 
 765      C2
 766 17e9 8D01619F 		.ascii	"\215\001a\237\220\001a\000"
 766      90016100 
 767 17f1 00000000 		.space	15
 767      00000000 
 767      00000000 
 767      000000
 768 1800 2000CF2C 		.ascii	" \000\317,\000\000\000\000\000\000%\002\256\003\331"
 768      00000000 
 768      00002502 
 768      AE03D9
 769 180f 02D90200 		.ascii	"\002\331\002\000\000\000\000\000\000\000\000\000\000"
 769      00000000 
 769      00000000 
 769      00
 770 181c 00000000 		.ascii	"\000\000\000\000\000\000\000\000\000\000\000\000\"\255"
 770      00000000 
 770      00000000 
 770      22AD
 771 182a 0161FFAF 		.ascii	"\001a\377\257\001a\000"
 771      016100
 772 1831 00000000 		.space	15
 772      00000000 
ARM GAS  /run/user/1000/cc4cbKPI.s 			page 47


 772      00000000 
 772      000000
 773 1840 2000D02C 		.ascii	" \000\320,\000\000\000\000\000\000%\002z\003\331\002"
 773      00000000 
 773      00002502 
 773      7A03D902 
 774 1850 D9020000 		.ascii	"\331\002\000\000\000\000\000\000\000\000\000\000\000"
 774      00000000 
 774      00000000 
 774      00
 775 185d 00000000 		.ascii	"\000\000\000\000\000\000\000\000\000\000\000c\314\001"
 775      00000000 
 775      00000063 
 775      CC01
 776 186b 6121CF01 		.ascii	"a!\317\001a\000"
 776      6100
 777 1871 00000000 		.space	15
 777      00000000 
 777      00000000 
 777      000000
 778 1880 2000D12C 		.ascii	" \000\321,\000\000\000\000\000\000%\002$\003\331\002"
 778      00000000 
 778      00002502 
 778      2403D902 
 779 1890 D9020000 		.ascii	"\331\002\000\000\000\000\000\000\000\000\000\000\000"
 779      00000000 
 779      00000000 
 779      00
 780 189d 00000000 		.ascii	"\000\000\000\000\000\000\000\000\000\000\000\004\013"
 780      00000000 
 780      00000004 
 780      0B
 781 18aa 0261E10D 		.ascii	"\002a\341\015\002a\000"
 781      026100
 782 18b1 00000000 		.space	15
 782      00000000 
 782      00000000 
 782      000000
 783 18c0 2000D22C 		.ascii	" \000\322,\000\000\000\000\000\000%\002\000\003\331"
 783      00000000 
 783      00002502 
 783      0003D9
 784 18cf 02D90200 		.ascii	"\002\331\002\000\000\000\000\000\000\000\000\000\000"
 784      00000000 
 784      00000000 
 784      00
 785 18dc 00000000 		.ascii	"\000\000\000\000\000\000\000\000\000\000\000\000E*\002"
 785      00000000 
 785      00000000 
 785      452A02
 786 18eb 61222D02 		.ascii	"a\"-\002a\000"
 786      6100
 787 18f1 00000000 		.space	15
 787      00000000 
 787      00000000 
 787      000000
 788 1900 2000D32C 		.ascii	" \000\323,\000\000\000\000\000\000%\002\264\002\331"
ARM GAS  /run/user/1000/cc4cbKPI.s 			page 48


 788      00000000 
 788      00002502 
 788      B402D9
 789 190f 02D90200 		.ascii	"\002\331\002\000\000\000\000\000\000\000\000\000\000"
 789      00000000 
 789      00000000 
 789      00
 790 191c 00000000 		.ascii	"\000\000\000\000\000\000\000\000\000\000\000\000\255"
 790      00000000 
 790      00000000 
 790      AD
 791 1929 8702618A 		.ascii	"\207\002a\212\212\002a\000"
 791      8A026100 
 792 1931 00000000 		.space	15
 792      00000000 
 792      00000000 
 792      000000
 793 1940 2000D42C 		.ascii	" \000\324,\000\000\000\000\000\000%\002\227\002\331"
 793      00000000 
 793      00002502 
 793      9702D9
 794 194f 02D90200 		.ascii	"\002\331\002\000\000\000\000\000\000\000\000\000\000"
 794      00000000 
 794      00000000 
 794      00
 795 195c 00000000 		.ascii	"\000\000\000\000\000\000\000\000\000\000\000\000l\306"
 795      00000000 
 795      00000000 
 795      6CC6
 796 196a 02612AC9 		.ascii	"\002a*\311\002a\000"
 796      026100
 797 1971 00000000 		.space	15
 797      00000000 
 797      00000000 
 797      000000
 798 1980 2000D52C 		.ascii	" \000\325,\000\000\000\000\000\000%\002I\002\331\002"
 798      00000000 
 798      00002502 
 798      4902D902 
 799 1990 D9020000 		.ascii	"\331\002\000\000\000\000\000\000\000\000\000\000\000"
 799      00000000 
 799      00000000 
 799      00
 800 199d 00000000 		.ascii	"\000\000\000\000\000\000\000\000\000\000\000y\337\003"
 800      00000000 
 800      00000079 
 800      DF03
 801 19ab 6156E203 		.ascii	"aV\342\003a\000"
 801      6100
 802 19b1 00000000 		.space	15
 802      00000000 
 802      00000000 
 802      000000
 803 19c0 2000D62C 		.ascii	" \000\326,\000\000\000\000\000\000%\0027\002\331\002"
 803      00000000 
 803      00002502 
 803      3702D902 
ARM GAS  /run/user/1000/cc4cbKPI.s 			page 49


 804 19d0 D9020000 		.ascii	"\331\002\000\000\000\000\000\000\000\000\000\000\000"
 804      00000000 
 804      00000000 
 804      00
 805 19dd 00000000 		.ascii	"\000\000\000\000\000\000\000\000\000\000\000\032\036"
 805      00000000 
 805      0000001A 
 805      1E
 806 19ea 0461D820 		.ascii	"\004a\330 \004a\000"
 806      046100
 807 19f1 00000000 		.space	15
 807      00000000 
 807      00000000 
 807      000000
 808 1a00 2000D72C 		.ascii	" \000\327,\000\000\000\000\000\000%\002\351\001\331"
 808      00000000 
 808      00002502 
 808      E901D9
 809 1a0f 02D90200 		.ascii	"\002\331\002\000\000\000\000\000\000\000\000\000\000"
 809      00000000 
 809      00000000 
 809      00
 810 1a1c 00000000 		.ascii	"\000\000\000\000\000\000\000\000\000\000\000\000`\272"
 810      00000000 
 810      00000000 
 810      60BA
 811 1a2a 04611EBD 		.ascii	"\004a\036\275\004a\000"
 811      046100
 812 1a31 00000000 		.space	15
 812      00000000 
 812      00000000 
 812      000000
 813 1a40 2000D82C 		.ascii	" \000\330,\000\000\000\000\000\000%\002\325\001\331"
 813      00000000 
 813      00002502 
 813      D501D9
 814 1a4f 02D90200 		.ascii	"\002\331\002\000\000\000\000\000\000\000\000\000\000"
 814      00000000 
 814      00000000 
 814      00
 815 1a5c 00000000 		.ascii	"\000\000\000\000\000\000\000\000\000\000\000\000\241"
 815      00000000 
 815      00000000 
 815      A1
 816 1a69 D904615F 		.ascii	"\331\004a_\334\004a\000"
 816      DC046100 
 817 1a71 00000000 		.space	15
 817      00000000 
 817      00000000 
 817      000000
 818 1a80 2000D92C 		.ascii	" \000\331,\000\000\000\000\000\000%\002\211\001\331"
 818      00000000 
 818      00002502 
 818      8901D9
 819 1a8f 02D90200 		.ascii	"\002\331\002\000\000\000\000\000\000\000\000\000\000"
 819      00000000 
 819      00000000 
ARM GAS  /run/user/1000/cc4cbKPI.s 			page 50


 819      00
 820 1a9c 00000000 		.ascii	"\000\000\000\000\000\000\000\000\000\000\000\000\357"
 820      00000000 
 820      00000000 
 820      EF
 821 1aa9 110661CC 		.ascii	"\021\006a\314\024\006a\000"
 821      14066100 
 822 1ab1 00000000 		.space	15
 822      00000000 
 822      00000000 
 822      000000
 823 1ac0 2000DA2C 		.ascii	" \000\332,\000\000\000\000\000\000%\002u\001\331\002"
 823      00000000 
 823      00002502 
 823      7501D902 
 824 1ad0 D9020000 		.ascii	"\331\002\000\000\000\000\000\000\000\000\000\000\000"
 824      00000000 
 824      00000000 
 824      00
 825 1add 00000000 		.ascii	"\000\000\000\000\000\000\000\000\000\000\000\375\210"
 825      00000000 
 825      000000FD 
 825      88
 826 1aea 0761BB8B 		.ascii	"\007a\273\213\007a\000"
 826      076100
 827 1af1 00000000 		.space	15
 827      00000000 
 827      00000000 
 827      000000
 828 1b00 2000DB2C 		.ascii	" \000\333,\000\000\000\000\000\000%\002\033\001\331"
 828      00000000 
 828      00002502 
 828      1B01D9
 829 1b0f 02D90200 		.ascii	"\002\331\002\000\000\000\000\000\000\000\000\000\000"
 829      00000000 
 829      00000000 
 829      00
 830 1b1c 00000000 		.ascii	"\000\000\000\000\000\000\000\000\000\000\000\000\264"
 830      00000000 
 830      00000000 
 830      B4
 831 1b29 DA096191 		.ascii	"\332\011a\221\335\011a\000"
 831      DD096100 
 832 1b31 00000000 		.space	15
 832      00000000 
 832      00000000 
 832      000000
 833 1b40 2000DC2C 		.ascii	" \000\334,\000\000\000\000\000\000%\002\010\001\331"
 833      00000000 
 833      00002502 
 833      0801D9
 834 1b4f 02D90200 		.ascii	"\002\331\002\000\000\000\000\000\000\000\000\000\000"
 834      00000000 
 834      00000000 
 834      00
 835 1b5c 00000000 		.ascii	"\000\000\000\000\000\000\000\000\000\000\000\000\023"
 835      00000000 
ARM GAS  /run/user/1000/cc4cbKPI.s 			page 51


 835      00000000 
 835      13
 836 1b69 FA0961F0 		.ascii	"\372\011a\360\374\011a\000"
 836      FC096100 
 837 1b71 00000000 		.space	15
 837      00000000 
 837      00000000 
 837      000000
 838 1b80 2000DD2C 		.ascii	" \000\335,\000\000\000\000\000\000%\002\272\000\331"
 838      00000000 
 838      00002502 
 838      BA00D9
 839 1b8f 02D90200 		.ascii	"\002\331\002\000\000\000\000\000\000\000\000\000\000"
 839      00000000 
 839      00000000 
 839      00
 840 1b9c 00000000 		.ascii	"\000\000\000\000\000\000\000\000\000\000\000\000\327"
 840      00000000 
 840      00000000 
 840      D7
 841 1ba9 570A6195 		.ascii	"W\012a\225Z\012a\000"
 841      5A0A6100 
 842 1bb1 00000000 		.space	15
 842      00000000 
 842      00000000 
 842      000000
 843 1bc0 2000DE2C 		.ascii	" \000\336,\000\000\000\000\000\000R\002\222\000\331"
 843      00000000 
 843      00005202 
 843      9200D9
 844 1bcf 02D90200 		.ascii	"\002\331\002\000\000\000\000\000\000\000\000\000\000"
 844      00000000 
 844      00000000 
 844      00
 845 1bdc 00000000 		.ascii	"\000\000\000\000\000\000\000\000\000\000\000\000\030"
 845      00000000 
 845      00000000 
 845      18
 846 1be9 770A61F5 		.ascii	"w\012a\365y\012a\000"
 846      790A6100 
 847 1bf1 00000000 		.space	15
 847      00000000 
 847      00000000 
 847      000000
 848 1c00 2000DF2C 		.ascii	" \000\337,\000\000\000\000\000\000R\002R\000\331\002"
 848      00000000 
 848      00005202 
 848      5200D902 
 849 1c10 D9020000 		.ascii	"\331\002\000\000\000\000\000\000\000\000\000\000\000"
 849      00000000 
 849      00000000 
 849      00
 850 1c1d 00000000 		.ascii	"\000\000\000\000\000\000\000\000\000\000\000\271\265"
 850      00000000 
 850      000000B9 
 850      B5
 851 1c2a 0A6177B8 		.ascii	"\012aw\270\012a\000"
ARM GAS  /run/user/1000/cc4cbKPI.s 			page 52


 851      0A6100
 852 1c31 00000000 		.space	15
 852      00000000 
 852      00000000 
 852      000000
 853 1c40 2000E02C 		.ascii	" \000\340,\000\000\000\000\000\000\277\000R\000\331"
 853      00000000 
 853      0000BF00 
 853      5200D9
 854 1c4f 02D90200 		.ascii	"\002\331\002\000\000\000\000\000\000\000\000\000\000"
 854      00000000 
 854      00000000 
 854      00
 855 1c5c 00000000 		.ascii	"\000\000\000\000\000\000\000\000\000\000\000\000\035"
 855      00000000 
 855      00000000 
 855      1D
 856 1c69 F40A61FA 		.ascii	"\364\012a\372\366\012a\000"
 856      F60A6100 
 857 1c71 00000000 		.space	15
 857      00000000 
 857      00000000 
 857      000000
 858 1c80 2000E12C 		.ascii	" \000\341,\000\000\000\000\000\000\371\375\004\001\331"
 858      00000000 
 858      0000F9FD 
 858      0401D9
 859 1c8f 02D90200 		.ascii	"\002\331\002\000\000\000\000\000\000\000\000\000\000"
 859      00000000 
 859      00000000 
 859      00
 860 1c9c 00000000 		.ascii	"\000\000\000\000\000\000\000\000\000\000\000\000^\023"
 860      00000000 
 860      00000000 
 860      5E13
 861 1caa 0B613B16 		.ascii	"\013a;\026\013a\000"
 861      0B6100
 862 1cb1 00000000 		.space	15
 862      00000000 
 862      00000000 
 862      000000
 863 1cc0 2000E22C 		.ascii	" \000\342,\000\000\000\000\000\000g\327\\\002\331\002"
 863      00000000 
 863      000067D7 
 863      5C02D902 
 864 1cd0 D9020000 		.ascii	"\331\002\000\000\000\000\000\000\000\000\000\000\000"
 864      00000000 
 864      00000000 
 864      00
 865 1cdd 00000000 		.ascii	"\000\000\000\000\000\000\000\000\000\000\000\2752\013"
 865      00000000 
 865      000000BD 
 865      320B
 866 1ceb 619A350B 		.ascii	"a\2325\013a\000"
 866      6100
 867 1cf1 00000000 		.space	15
 867      00000000 
ARM GAS  /run/user/1000/cc4cbKPI.s 			page 53


 867      00000000 
 867      000000
 868 1d00 2000E32C 		.ascii	" \000\343,\000\000\000\000\000\000\203\252\304\004\331"
 868      00000000 
 868      000083AA 
 868      C404D9
 869 1d0f 02D90200 		.ascii	"\002\331\002\000\000\000\000\000\000\000\000\000\000"
 869      00000000 
 869      00000000 
 869      00
 870 1d1c 00000000 		.ascii	"\000\000\000\000\000\000\000\000\000\000\000\000\377"
 870      00000000 
 870      00000000 
 870      FF
 871 1d29 510B61DB 		.ascii	"Q\013a\333T\013a\000"
 871      540B6100 
 872 1d31 00000000 		.space	15
 872      00000000 
 872      00000000 
 872      000000
 873 1d40 2000E42C 		.ascii	" \000\344,\000\000\000\000\000\000\000\200\342\007\331"
 873      00000000 
 873      00000080 
 873      E207D9
 874 1d4f 02D90200 		.ascii	"\002\331\002\000\000\000\000\000\000\000\000\000\000"
 874      00000000 
 874      00000000 
 874      00
 875 1d5c 00000000 		.ascii	"\000\000\000\000\000\000\000\000\000\000\000\000!q\013"
 875      00000000 
 875      00000000 
 875      21710B
 876 1d6b 61E0730B 		.ascii	"a\340s\013a\000"
 876      6100
 877 1d71 00000000 		.space	15
 877      00000000 
 877      00000000 
 877      000000
 878 1d80 2000E52C 		.ascii	" \000\345,\000\000\000\000\000\000\000\200U\012\331"
 878      00000000 
 878      00000080 
 878      550AD9
 879 1d8f 02D90200 		.ascii	"\002\331\002\000\000\000\000\000\000\000\000\000\000"
 879      00000000 
 879      00000000 
 879      00
 880 1d9c 00000000 		.ascii	"\000\000\000\000\000\000\000\000\000\000\000\000D\220"
 880      00000000 
 880      00000000 
 880      4490
 881 1daa 0B610293 		.ascii	"\013a\002\223\013a\000"
 881      0B6100
 882 1db1 00000000 		.space	15
 882      00000000 
 882      00000000 
 882      000000
 883 1dc0 2000E62C 		.ascii	" \000\346,\000\000\000\000\000\000\000\200\363\013\331"
ARM GAS  /run/user/1000/cc4cbKPI.s 			page 54


 883      00000000 
 883      00000080 
 883      F30BD9
 884 1dcf 02D90200 		.ascii	"\002\331\002\000\000\000\000\000\000\000\000\000\000"
 884      00000000 
 884      00000000 
 884      00
 885 1ddc 00000000 		.ascii	"\000\000\000\000\000\000\000\000\000\000\000\000\302"
 885      00000000 
 885      00000000 
 885      C2
 886 1de9 AF0B619F 		.ascii	"\257\013a\237\262\013a\000"
 886      B20B6100 
 887 1df1 00000000 		.space	15
 887      00000000 
 887      00000000 
 887      000000
 888 1e00 2000E72C 		.ascii	" \000\347,\000\000\000\000\000\000\000\200\277\014\331"
 888      00000000 
 888      00000080 
 888      BF0CD9
 889 1e0f 02D90200 		.ascii	"\002\331\002\000\000\000\000\000\000\000\000\000\000"
 889      00000000 
 889      00000000 
 889      00
 890 1e1c 00000000 		.ascii	"\000\000\000\000\000\000\000\000\000\000\000\000\345"
 890      00000000 
 890      00000000 
 890      E5
 891 1e29 CE0B61A3 		.ascii	"\316\013a\243\321\013a\000"
 891      D10B6100 
 892 1e31 00000000 		.space	15
 892      00000000 
 892      00000000 
 892      000000
 893 1e40 2000E82C 		.ascii	" \000\350,\000\000\000\000\000\000\000\200\377\014\331"
 893      00000000 
 893      00000080 
 893      FF0CD9
 894 1e4f 02D90200 		.ascii	"\002\331\002\000\000\000\000\000\000\000\000\000\000"
 894      00000000 
 894      00000000 
 894      00
 895 1e5c 00000000 		.ascii	"\000\000\000\000\000\000\000\000\000\000\000\000\007"
 895      00000000 
 895      00000000 
 895      07
 896 1e69 EE0B61E4 		.ascii	"\356\013a\344\360\013a\000"
 896      F00B6100 
 897 1e71 00000000 		.space	15
 897      00000000 
 897      00000000 
 897      000000
 898 1e80 2000E92C 		.ascii	" \000\351,\000\000\000\000\000\000\000\200P\014\331"
 898      00000000 
 898      00000080 
 898      500CD9
ARM GAS  /run/user/1000/cc4cbKPI.s 			page 55


 899 1e8f 02D90200 		.ascii	"\002\331\002\000\000\000\000\000\000\000\000\000\000"
 899      00000000 
 899      00000000 
 899      00
 900 1e9c 00000000 		.ascii	"\000\000\000\000\000\000\000\000\000\000\000\000\010"
 900      00000000 
 900      00000000 
 900      08
 901 1ea9 4C0C61C6 		.ascii	"L\014a\306N\014a\000"
 901      4E0C6100 
 902 1eb1 00000000 		.space	15
 902      00000000 
 902      00000000 
 902      000000
 903 1ec0 2000EA2C 		.ascii	" \000\352,\000\000\000\000\000\000\000\200\027\014\331"
 903      00000000 
 903      00000080 
 903      170CD9
 904 1ecf 02D90200 		.ascii	"\002\331\002\000\000\000\000\000\000\000\000\000\000"
 904      00000000 
 904      00000000 
 904      00
 905 1edc 00000000 		.ascii	"\000\000\000\000\000\000\000\000\000\000\000\000Ik\014"
 905      00000000 
 905      00000000 
 905      496B0C
 906 1eeb 61076E0C 		.ascii	"a\007n\014a\000"
 906      6100
 907 1ef1 00000000 		.space	15
 907      00000000 
 907      00000000 
 907      000000
 908 1f00 2000EB2C 		.ascii	" \000\353,\000\000\000\000\000\000\000\200\344\013\331"
 908      00000000 
 908      00000080 
 908      E40BD9
 909 1f0f 02D90200 		.ascii	"\002\331\002\000\000\000\000\000\000\000\000\000\000"
 909      00000000 
 909      00000000 
 909      00
 910 1f1c 00000000 		.ascii	"\000\000\000\000\000\000\000\000\000\000\000\000M\212"
 910      00000000 
 910      00000000 
 910      4D8A
 911 1f2a 0C612A8D 		.ascii	"\014a*\215\014a\000"
 911      0C6100
 912 1f31 00000000 		.space	15
 912      00000000 
 912      00000000 
 912      000000
 913 1f40 2000EC2C 		.ascii	" \000\354,\000\000\000\000\000\000\000\200\224\013\331"
 913      00000000 
 913      00000080 
 913      940BD9
 914 1f4f 02D90200 		.ascii	"\002\331\002\000\000\000\000\000\000\000\000\000\000"
 914      00000000 
 914      00000000 
ARM GAS  /run/user/1000/cc4cbKPI.s 			page 56


 914      00
 915 1f5c 00000000 		.ascii	"\000\000\000\000\000\000\000\000\000\000\000\000\317"
 915      00000000 
 915      00000000 
 915      CF
 916 1f69 C80C618E 		.ascii	"\310\014a\216\313\014a\000"
 916      CB0C6100 
 917 1f71 00000000 		.space	15
 917      00000000 
 917      00000000 
 917      000000
 918 1f80 2000ED2C 		.ascii	" \000\355,\000\000\000\000\000\000\000\200N\013\331"
 918      00000000 
 918      00000080 
 918      4E0BD9
 919 1f8f 02D90200 		.ascii	"\002\331\002\000\000\000\000\000\000\000\000\000\000"
 919      00000000 
 919      00000000 
 919      00
 920 1f9c 00000000 		.ascii	"\000\000\000\000\000\000\000\000\000\000\000\000\020"
 920      00000000 
 920      00000000 
 920      10
 921 1fa9 E80C61CF 		.ascii	"\350\014a\317\352\014a\000"
 921      EA0C6100 
 922 1fb1 00000000 		.space	15
 922      00000000 
 922      00000000 
 922      000000
 923 1fc0 2000EE2C 		.ascii	" \000\356,\000\000\000\000\000\000\000\200\337\012\331"
 923      00000000 
 923      00000080 
 923      DF0AD9
 924 1fcf 02D90200 		.ascii	"\002\331\002\000\000\000\000\000\000\000\000\000\000"
 924      00000000 
 924      00000000 
 924      00
 925 1fdc 00000000 		.ascii	"\000\000\000\000\000\000\000\000\000\000\000\000Q\007"
 925      00000000 
 925      00000000 
 925      5107
 926 1fea 0D61100A 		.ascii	"\015a\020\012\015a\000"
 926      0D6100
 927 1ff1 00000000 		.space	15
 927      00000000 
 927      00000000 
 927      000000
 928 2000 2000EF2C 		.ascii	" \000\357,\000\000\000\000\000\000\000\200|\012\331"
 928      00000000 
 928      00000080 
 928      7C0AD9
 929 200f 02D90200 		.ascii	"\002\331\002\000\000\000\000\000\000\000\000\000\000"
 929      00000000 
 929      00000000 
 929      00
 930 201c 00000000 		.ascii	"\000\000\000\000\000\000\000\000\000\000\000\000\223"
 930      00000000 
ARM GAS  /run/user/1000/cc4cbKPI.s 			page 57


 930      00000000 
 930      93
 931 2029 260D6151 		.ascii	"&\015aQ)\015a\000"
 931      290D6100 
 932 2031 00000000 		.space	15
 932      00000000 
 932      00000000 
 932      000000
 933 2040 2000F02C 		.ascii	" \000\360,\000\000\000\000\000\000\000\2007\012\331"
 933      00000000 
 933      00000080 
 933      370AD9
 934 204f 02D90200 		.ascii	"\002\331\002\000\000\000\000\000\000\000\000\000\000"
 934      00000000 
 934      00000000 
 934      00
 935 205c 00000000 		.ascii	"\000\000\000\000\000\000\000\000\000\000\000\000\362"
 935      00000000 
 935      00000000 
 935      F2
 936 2069 450D61CF 		.ascii	"E\015a\317H\015a\000"
 936      480D6100 
 937 2071 00000000 		.space	15
 937      00000000 
 937      00000000 
 937      000000
 938 2080 2000F12C 		.ascii	" \000\361,\000\000\000\000\000\0002\202Z\013\331\002"
 938      00000000 
 938      00003282 
 938      5A0BD902 
 939 2090 D9020000 		.ascii	"\331\002\000\000\000\000\000\000\000\000\000\000\000"
 939      00000000 
 939      00000000 
 939      00
 940 209d 00000000 		.ascii	"\000\000\000\000\000\000\000\000\000\000\000\223\204"
 940      00000000 
 940      00000093 
 940      84
 941 20aa 0D618F87 		.ascii	"\015a\217\207\015a\000"
 941      0D6100
 942 20b1 00000000 		.space	15
 942      00000000 
 942      00000000 
 942      000000
 943 20c0 2000F22C 		.ascii	" \000\362,\000\000\000\000\000\000g\241D\014\331\002"
 943      00000000 
 943      000067A1 
 943      440CD902 
 944 20d0 D9020000 		.ascii	"\331\002\000\000\000\000\000\000\000\000\000\000\000"
 944      00000000 
 944      00000000 
 944      00
 945 20dd 00000000 		.ascii	"\000\000\000\000\000\000\000\000\000\000\000\324\243"
 945      00000000 
 945      000000D4 
 945      A3
 946 20ea 0D61B1A6 		.ascii	"\015a\261\246\015a\000"
ARM GAS  /run/user/1000/cc4cbKPI.s 			page 58


 946      0D6100
 947 20f1 00000000 		.space	15
 947      00000000 
 947      00000000 
 947      000000
 948 2100 2000F32C 		.ascii	" \000\363,\000\000\000\000\000\000\355\245)\015\331"
 948      00000000 
 948      0000EDA5 
 948      290DD9
 949 210f 02D90200 		.ascii	"\002\331\002\000\000\000\000\000\000\000\000\000\000"
 949      00000000 
 949      00000000 
 949      00
 950 211c 00000000 		.ascii	"\000\000\000\000\000\000\000\000\000\000\000\000\330"
 950      00000000 
 950      00000000 
 950      D8
 951 2129 C20D61B5 		.ascii	"\302\015a\265\305\015a\000"
 951      C50D6100 
 952 2131 00000000 		.space	15
 952      00000000 
 952      00000000 
 952      000000
 953 2140 2000F42C 		.ascii	" \000\364,\000\000\000\000\000\000\377\321\274\015\331"
 953      00000000 
 953      0000FFD1 
 953      BC0DD9
 954 214f 02D90200 		.ascii	"\002\331\002\000\000\000\000\000\000\000\000\000\000"
 954      00000000 
 954      00000000 
 954      00
 955 215c 00000000 		.ascii	"\000\000\000\000\000\000\000\000\000\000\000\000\031"
 955      00000000 
 955      00000000 
 955      19
 956 2169 E20D61F6 		.ascii	"\342\015a\366\344\015a\000"
 956      E40D6100 
 957 2171 00000000 		.space	15
 957      00000000 
 957      00000000 
 957      000000
 958 2180 2000F52C 		.ascii	" \000\365,\000\000\000\000\000\000A\326\347\015\331"
 958      00000000 
 958      000041D6 
 958      E70DD9
 959 218f 02D90200 		.ascii	"\002\331\002\000\000\000\000\000\000\000\000\000\000"
 959      00000000 
 959      00000000 
 959      00
 960 219c 00000000 		.ascii	"\000\000\000\000\000\000\000\000\000\000\000\000y\001"
 960      00000000 
 960      00000000 
 960      7901
 961 21aa 0E615604 		.ascii	"\016aV\004\016a\000"
 961      0E6100
 962 21b1 00000000 		.space	15
 962      00000000 
ARM GAS  /run/user/1000/cc4cbKPI.s 			page 59


 962      00000000 
 962      000000
 963 21c0 2000F62C 		.ascii	" \000\366,\000\000\000\000\000\000\325\366\347\015\331"
 963      00000000 
 963      0000D5F6 
 963      E70DD9
 964 21cf 02D90200 		.ascii	"\002\331\002\000\000\000\000\000\000\000\000\000\000"
 964      00000000 
 964      00000000 
 964      00
 965 21dc 00000000 		.ascii	"\000\000\000\000\000\000\000\000\000\000\000\000\272"
 965      00000000 
 965      00000000 
 965      BA
 966 21e9 200E61B6 		.ascii	" \016a\266#\016a\000"
 966      230E6100 
 967 21f1 00000000 		.space	15
 967      00000000 
 967      00000000 
 967      000000
 968 2200 2000F72C 		.ascii	" \000\367,\000\000\000\000\000\000\267\367\241\014\331"
 968      00000000 
 968      0000B7F7 
 968      A10CD9
 969 220f 02D90200 		.ascii	"\002\331\002\000\000\000\000\000\000\000\000\000\000"
 969      00000000 
 969      00000000 
 969      00
 970 221c 00000000 		.ascii	"\000\000\000\000\000\000\000\000\000\000\000\000\373"
 970      00000000 
 970      00000000 
 970      FB
 971 2229 3F0E61BA 		.ascii	"?\016a\272B\016a\000"
 971      420E6100 
 972 2231 00000000 		.space	15
 972      00000000 
 972      00000000 
 972      000000
 973 2240 2000F82C 		.ascii	" \000\370,\000\000\000\000\000\000a\370\362\013\331"
 973      00000000 
 973      000061F8 
 973      F20BD9
 974 224f 02D90200 		.ascii	"\002\331\002\000\000\000\000\000\000\000\000\000\000"
 974      00000000 
 974      00000000 
 974      00
 975 225c 00000000 		.ascii	"\000\000\000\000\000\000\000\000\000\000\000\000\036"
 975      00000000 
 975      00000000 
 975      1E
 976 2269 5F0E61B2 		.ascii	"_\016a\262b\016a\000"
 976      620E6100 
 977 2271 00000000 		.space	15
 977      00000000 
 977      00000000 
 977      000000
 978 2280 2000F92C 		.ascii	" \000\371,\000\000\000\000\000\000\351\370`\013\331"
ARM GAS  /run/user/1000/cc4cbKPI.s 			page 60


 978      00000000 
 978      0000E9F8 
 978      600BD9
 979 228f 02D90200 		.ascii	"\002\331\002\000\000\000\000\000\000\000\000\000\000"
 979      00000000 
 979      00000000 
 979      00
 980 229c 00000000 		.ascii	"\000\000\000\000\000\000\000\000\000\000\000\000~~\016"
 980      00000000 
 980      00000000 
 980      7E7E0E
 981 22ab 615B810E 		.ascii	"a[\201\016a\000"
 981      6100
 982 22b1 00000000 		.space	15
 982      00000000 
 982      00000000 
 982      000000
 983 22c0 2000FA2C 		.ascii	" \000\372,\000\000\000\000\000\000U\371\337\012\331"
 983      00000000 
 983      000055F9 
 983      DF0AD9
 984 22cf 02D90200 		.ascii	"\002\331\002\000\000\000\000\000\000\000\000\000\000"
 984      00000000 
 984      00000000 
 984      00
 985 22dc 00000000 		.ascii	"\000\000\000\000\000\000\000\000\000\000\000\000\202"
 985      00000000 
 985      00000000 
 985      82
 986 22e9 9D0E615F 		.ascii	"\235\016a_\240\016a\000"
 986      A00E6100 
 987 22f1 00000000 		.space	15
 987      00000000 
 987      00000000 
 987      000000
 988 2300 2000FB2C 		.ascii	" \000\373,\000\000\000\000\000\000\252\371N\012\331"
 988      00000000 
 988      0000AAF9 
 988      4E0AD9
 989 230f 02D90200 		.ascii	"\002\331\002\000\000\000\000\000\000\000\000\000\000"
 989      00000000 
 989      00000000 
 989      00
 990 231c 00000000 		.ascii	"\000\000\000\000\000\000\000\000\000\000\000\000\341"
 990      00000000 
 990      00000000 
 990      E1
 991 2329 BC0E61BE 		.ascii	"\274\016a\276\277\016a\000"
 991      BF0E6100 
 992 2331 00000000 		.space	15
 992      00000000 
 992      00000000 
 992      000000
 993 2340 2000FC2C 		.ascii	" \000\374,\000\000\000\000\000\000\370\371\260\011\331"
 993      00000000 
 993      0000F8F9 
 993      B009D9
ARM GAS  /run/user/1000/cc4cbKPI.s 			page 61


 994 234f 02D90200 		.ascii	"\002\331\002\000\000\000\000\000\000\000\000\000\000"
 994      00000000 
 994      00000000 
 994      00
 995 235c 00000000 		.ascii	"\000\000\000\000\000\000\000\000\000\000\000\000\"\334"
 995      00000000 
 995      00000000 
 995      22DC
 996 236a 0E61FFDE 		.ascii	"\016a\377\336\016a\000"
 996      0E6100
 997 2371 00000000 		.space	15
 997      00000000 
 997      00000000 
 997      000000
 998 2380 2000FD2C 		.ascii	" \000\375,\000\000\000\000\000\000:\372\023\011\331"
 998      00000000 
 998      00003AFA 
 998      1309D9
 999 238f 02D90200 		.ascii	"\002\331\002\000\000\000\000\000\000\000\000\000\000"
 999      00000000 
 999      00000000 
 999      00
 1000 239c 00000000 		.ascii	"\000\000\000\000\000\000\000\000\000\000\000\000\202"
 1000      00000000 
 1000      00000000 
 1000      82
 1001 23a9 FB0E617E 		.ascii	"\373\016a~\376\016a\000"
 1001      FE0E6100 
 1002 23b1 00000000 		.space	15
 1002      00000000 
 1002      00000000 
 1002      000000
 1003 23c0 2000FE2C 		.ascii	" \000\376,\000\000\000\000\000\000i\372\204\010\331"
 1003      00000000 
 1003      000069FA 
 1003      8408D9
 1004 23cf 02D90200 		.ascii	"\002\331\002\000\000\000\000\000\000\000\000\000\000"
 1004      00000000 
 1004      00000000 
 1004      00
 1005 23dc 00000000 		.ascii	"\000\000\000\000\000\000\000\000\000\000\000\000\245"
 1005      00000000 
 1005      00000000 
 1005      A5
 1006 23e9 1A0F6182 		.ascii	"\032\017a\202\035\017a\000"
 1006      1D0F6100 
 1007 23f1 00000000 		.space	15
 1007      00000000 
 1007      00000000 
 1007      000000
 1008 2400 2000FF2C 		.ascii	" \000\377,\000\000\000\000\000\000i\372\005\010\331"
 1008      00000000 
 1008      000069FA 
 1008      0508D9
 1009 240f 02D90200 		.ascii	"\002\331\002\000\000\000\000\000\000\000\000\000\000"
 1009      00000000 
 1009      00000000 
ARM GAS  /run/user/1000/cc4cbKPI.s 			page 62


 1009      00
 1010 241c 00000000 		.ascii	"\000\000\000\000\000\000\000\000\000\000\000\000\307"
 1010      00000000 
 1010      00000000 
 1010      C7
 1011 2429 390F61A4 		.ascii	"9\017a\244<\017a\000"
 1011      3C0F6100 
 1012 2431 00000000 		.space	15
 1012      00000000 
 1012      00000000 
 1012      000000
 1013 2440 2000012C 		.ascii	" \000\001,\000\000\000\000\000\000\274\372\231\007\331"
 1013      00000000 
 1013      0000BCFA 
 1013      9907D9
 1014 244f 02D90200 		.ascii	"\002\331\002\000\000\000\000\000\000\000\000\000\000"
 1014      00000000 
 1014      00000000 
 1014      00
 1015 245c 00000000 		.ascii	"\000\000\000\000\000\000\000\000\000\000\000\000'Y\017"
 1015      00000000 
 1015      00000000 
 1015      27590F
 1016 246b 61045C0F 		.ascii	"a\004\\\017a\000"
 1016      6100
 1017 2471 00000000 		.space	15
 1017      00000000 
 1017      00000000 
 1017      000000
 1018 2480 2000022C 		.ascii	" \000\002,\000\000\000\000\000\000\341\372=\007\331"
 1018      00000000 
 1018      0000E1FA 
 1018      3D07D9
 1019 248f 02D90200 		.ascii	"\002\331\002\000\000\000\000\000\000\000\000\000\000"
 1019      00000000 
 1019      00000000 
 1019      00
 1020 249c 00000000 		.ascii	"\000\000\000\000\000\000\000\000\000\000\000\000hx\017"
 1020      00000000 
 1020      00000000 
 1020      68780F
 1021 24ab 61457B0F 		.ascii	"aE{\017a\000"
 1021      6100
 1022 24b1 00000000 		.space	15
 1022      00000000 
 1022      00000000 
 1022      000000
 1023 24c0 2000032C 		.ascii	" \000\003,\000\000\000\000\000\000\341\372\371\006\331"
 1023      00000000 
 1023      0000E1FA 
 1023      F906D9
 1024 24cf 02D90200 		.ascii	"\002\331\002\000\000\000\000\000\000\000\000\000\000"
 1024      00000000 
 1024      00000000 
 1024      00
 1025 24dc 00000000 		.ascii	"\000\000\000\000\000\000\000\000\000\000\000\000\251"
 1025      00000000 
ARM GAS  /run/user/1000/cc4cbKPI.s 			page 63


 1025      00000000 
 1025      A9
 1026 24e9 970F6186 		.ascii	"\227\017a\206\232\017a\000"
 1026      9A0F6100 
 1027 24f1 00000000 		.space	15
 1027      00000000 
 1027      00000000 
 1027      000000
 1028 2500 2000042C 		.ascii	" \000\004,\000\000\000\000\000\000\341\372\302\006\331"
 1028      00000000 
 1028      0000E1FA 
 1028      C206D9
 1029 250f 02D90200 		.ascii	"\002\331\002\000\000\000\000\000\000\000\000\000\000"
 1029      00000000 
 1029      00000000 
 1029      00
 1030 251c 00000000 		.ascii	"\000\000\000\000\000\000\000\000\000\000\000\000\352"
 1030      00000000 
 1030      00000000 
 1030      EA
 1031 2529 B60F61C7 		.ascii	"\266\017a\307\271\017a\000"
 1031      B90F6100 
 1032 2531 00000000 		.space	15
 1032      00000000 
 1032      00000000 
 1032      000000
 1033 2540 2000052C 		.ascii	" \000\005,\000\000\000\000\000\000:\373\225\006\331"
 1033      00000000 
 1033      00003AFB 
 1033      9506D9
 1034 254f 02D90200 		.ascii	"\002\331\002\000\000\000\000\000\000\000\000\000\000"
 1034      00000000 
 1034      00000000 
 1034      00
 1035 255c 00000000 		.ascii	"\000\000\000\000\000\000\000\000\000\000\000\000,\326"
 1035      00000000 
 1035      00000000 
 1035      2CD6
 1036 256a 0F6109D9 		.ascii	"\017a\011\331\017a\000"
 1036      0F6100
 1037 2571 00000000 		.space	15
 1037      00000000 
 1037      00000000 
 1037      000000
 1038 2580 2000062C 		.ascii	" \000\006,\000\000\000\000\000\000Q\373\225\006\331"
 1038      00000000 
 1038      000051FB 
 1038      9506D9
 1039 258f 02D90200 		.ascii	"\002\331\002\000\000\000\000\000\000\000\000\000\000"
 1039      00000000 
 1039      00000000 
 1039      00
 1040 259c 00000000 		.ascii	"\000\000\000\000\000\000\000\000\000\000\000\000\213"
 1040      00000000 
 1040      00000000 
 1040      8B
 1041 25a9 F50F6168 		.ascii	"\365\017ah\370\017a\000"
ARM GAS  /run/user/1000/cc4cbKPI.s 			page 64


 1041      F80F6100 
 1042 25b1 00000000 		.space	15
 1042      00000000 
 1042      00000000 
 1042      000000
 1043 25c0 2000072C 		.ascii	" \000\007,\000\000\000\000\000\000Q\373U\006\331\002"
 1043      00000000 
 1043      000051FB 
 1043      5506D902 
 1044 25d0 D9020000 		.ascii	"\331\002\000\000\000\000\000\000\000\000\000\000\000"
 1044      00000000 
 1044      00000000 
 1044      00
 1045 25dd 00000000 		.ascii	"\000\000\000\000\000\000\000\000\000\000\000\217\024"
 1045      00000000 
 1045      0000008F 
 1045      14
 1046 25ea 10616C17 		.ascii	"\020al\027\020a\000"
 1046      106100
 1047 25f1 00000000 		.space	15
 1047      00000000 
 1047      00000000 
 1047      000000
 1048 2600 2000082C 		.ascii	" \000\010,\000\000\000\000\000\000Q\373&\006\331\002"
 1048      00000000 
 1048      000051FB 
 1048      2606D902 
 1049 2610 D9020000 		.ascii	"\331\002\000\000\000\000\000\000\000\000\000\000\000"
 1049      00000000 
 1049      00000000 
 1049      00
 1050 261d 00000000 		.ascii	"\000\000\000\000\000\000\000\000\000\000\000\022S\020"
 1050      00000000 
 1050      00000012 
 1050      5310
 1051 262b 61D05510 		.ascii	"a\320U\020a\000"
 1051      6100
 1052 2631 00000000 		.space	15
 1052      00000000 
 1052      00000000 
 1052      000000
 1053 2640 2000092C 		.ascii	" \000\011,\000\000\000\000\000\000\240\373&\006\331"
 1053      00000000 
 1053      0000A0FB 
 1053      2606D9
 1054 264f 02D90200 		.ascii	"\002\331\002\000\000\000\000\000\000\000\000\000\000"
 1054      00000000 
 1054      00000000 
 1054      00
 1055 265c 00000000 		.ascii	"\000\000\000\000\000\000\000\000\000\000\000\000\262"
 1055      00000000 
 1055      00000000 
 1055      B2
 1056 2669 91106171 		.ascii	"\221\020aq\224\020a\000"
 1056      94106100 
 1057 2671 00000000 		.space	15
 1057      00000000 
ARM GAS  /run/user/1000/cc4cbKPI.s 			page 65


 1057      00000000 
 1057      000000
 1058 2680 20000A2C 		.ascii	" \000\012,\000\000\000\000\000\000\264\373\363\005\331"
 1058      00000000 
 1058      0000B4FB 
 1058      F305D9
 1059 268f 02D90200 		.ascii	"\002\331\002\000\000\000\000\000\000\000\000\000\000"
 1059      00000000 
 1059      00000000 
 1059      00
 1060 269c 00000000 		.ascii	"\000\000\000\000\000\000\000\000\000\000\000\000\026"
 1060      00000000 
 1060      00000000 
 1060      16
 1061 26a9 D01061F3 		.ascii	"\320\020a\363\322\020a\000"
 1061      D2106100 
 1062 26b1 00000000 		.space	15
 1062      00000000 
 1062      00000000 
 1062      000000
 1063 26c0 20000B2C 		.ascii	" \000\013,\000\000\000\000\000\000\264\373\271\005\331"
 1063      00000000 
 1063      0000B4FB 
 1063      B905D9
 1064 26cf 02D90200 		.ascii	"\002\331\002\000\000\000\000\000\000\000\000\000\000"
 1064      00000000 
 1064      00000000 
 1064      00
 1065 26dc 00000000 		.ascii	"\000\000\000\000\000\000\000\000\000\000\000\000\037"
 1065      00000000 
 1065      00000000 
 1065      1F
 1066 26e9 CA1161DE 		.ascii	"\312\021a\336\314\021a\000"
 1066      CC116100 
 1067 26f1 00000000 		.space	15
 1067      00000000 
 1067      00000000 
 1067      000000
 1068 2700 20000C2C 		.ascii	" \000\014,\000\000\000\000\000\000\001\374\271\005\331"
 1068      00000000 
 1068      000001FC 
 1068      B905D9
 1069 270f 02D90200 		.ascii	"\002\331\002\000\000\000\000\000\000\000\000\000\000"
 1069      00000000 
 1069      00000000 
 1069      00
 1070 271c 00000000 		.ascii	"\000\000\000\000\000\000\000\000\000\000\000\000BG\022"
 1070      00000000 
 1070      00000000 
 1070      424712
 1071 272b 61014A12 		.ascii	"a\001J\022a\000"
 1071      6100
 1072 2731 00000000 		.space	15
 1072      00000000 
 1072      00000000 
 1072      000000
 1073 2740 20000D2C 		.ascii	" \000\015,\000\000\000\000\000\000\001\374\220\005\331"
ARM GAS  /run/user/1000/cc4cbKPI.s 			page 66


 1073      00000000 
 1073      000001FC 
 1073      9005D9
 1074 274f 02D90200 		.ascii	"\002\331\002\000\000\000\000\000\000\000\000\000\000"
 1074      00000000 
 1074      00000000 
 1074      00
 1075 275c 00000000 		.ascii	"\000\000\000\000\000\000\000\000\000\000\000\000\203"
 1075      00000000 
 1075      00000000 
 1075      83
 1076 2769 66126160 		.ascii	"f\022a`i\022a\000"
 1076      69126100 
 1077 2771 00000000 		.space	15
 1077      00000000 
 1077      00000000 
 1077      000000
 1078 2780 20000E2C 		.ascii	" \000\016,\000\000\000\000\000\000\025\374\220\005\331"
 1078      00000000 
 1078      000015FC 
 1078      9005D9
 1079 278f 02D90200 		.ascii	"\002\331\002\000\000\000\000\000\000\000\000\000\000"
 1079      00000000 
 1079      00000000 
 1079      00
 1080 279c 00000000 		.ascii	"\000\000\000\000\000\000\000\000\000\000\000\000K\343"
 1080      00000000 
 1080      00000000 
 1080      4BE3
 1081 27aa 126109E6 		.ascii	"\022a\011\346\022a\000"
 1081      126100
 1082 27b1 00000000 		.space	15
 1082      00000000 
 1082      00000000 
 1082      000000
 1083 27c0 20000F2C 		.ascii	" \000\017,\000\000\000\000\000\000\025\374X\005\331"
 1083      00000000 
 1083      000015FC 
 1083      5805D9
 1084 27cf 02D90200 		.ascii	"\002\331\002\000\000\000\000\000\000\000\000\000\000"
 1084      00000000 
 1084      00000000 
 1084      00
 1085 27dc 00000000 		.ascii	"\000\000\000\000\000\000\000\000\000\000\000\000\376"
 1085      00000000 
 1085      00000000 
 1085      FE
 1086 27e9 B71461DA 		.ascii	"\267\024a\332\272\024a\000"
 1086      BA146100 
 1087 27f1 00000000 		.space	15
 1087      00000000 
 1087      00000000 
 1087      000000
 1088 2800 2000102C 		.ascii	" \000\020,\000\000\000\000\000\000\025\374+\005\331"
 1088      00000000 
 1088      000015FC 
 1088      2B05D9
ARM GAS  /run/user/1000/cc4cbKPI.s 			page 67


 1089 280f 02D90200 		.ascii	"\002\331\002\000\000\000\000\000\000\000\000\000\000"
 1089      00000000 
 1089      00000000 
 1089      00
 1090 281c 00000000 		.ascii	"\000\000\000\000\000\000\000\000\000\000\000\000]\327"
 1090      00000000 
 1090      00000000 
 1090      5DD7
 1091 282a 14611CDA 		.ascii	"\024a\034\332\024a\000"
 1091      146100
 1092 2831 00000000 		.space	15
 1092      00000000 
 1092      00000000 
 1092      000000
 1093 2840 2000112C 		.ascii	" \000\021,\000\000\000\000\000\000\025\374\314\004\331"
 1093      00000000 
 1093      000015FC 
 1093      CC04D9
 1094 284f 02D90200 		.ascii	"\002\331\002\000\000\000\000\000\000\000\000\000\000"
 1094      00000000 
 1094      00000000 
 1094      00
 1095 285c 00000000 		.ascii	"\000\000\000\000\000\000\000\000\000\000\000\000\236"
 1095      00000000 
 1095      00000000 
 1095      9E
 1096 2869 F614617B 		.ascii	"\366\024a{\371\024a\000"
 1096      F9146100 
 1097 2871 00000000 		.space	15
 1097      00000000 
 1097      00000000 
 1097      000000
 1098 2880 2000122C 		.ascii	" \000\022,\000\000\000\000\000\000\025\374@\004\331"
 1098      00000000 
 1098      000015FC 
 1098      4004D9
 1099 288f 02D90200 		.ascii	"\002\331\002\000\000\000\000\000\000\000\000\000\000"
 1099      00000000 
 1099      00000000 
 1099      00
 1100 289c 00000000 		.ascii	"\000\000\000\000\000\000\000\000\000\000\000\000\337"
 1100      00000000 
 1100      00000000 
 1100      DF
 1101 28a9 1515619E 		.ascii	"\025\025a\236\030\025a\000"
 1101      18156100 
 1102 28b1 00000000 		.space	15
 1102      00000000 
 1102      00000000 
 1102      000000
 1103 28c0 2000132C 		.ascii	" \000\023,\000\000\000\000\000\000\025\374\264\003\331"
 1103      00000000 
 1103      000015FC 
 1103      B403D9
 1104 28cf 02D90200 		.ascii	"\002\331\002\000\000\000\000\000\000\000\000\000\000"
 1104      00000000 
 1104      00000000 
ARM GAS  /run/user/1000/cc4cbKPI.s 			page 68


 1104      00
 1105 28dc 00000000 		.ascii	"\000\000\000\000\000\000\000\000\000\000\000\000?5\025"
 1105      00000000 
 1105      00000000 
 1105      3F3515
 1106 28eb 611C3815 		.ascii	"a\0348\025a\000"
 1106      6100
 1107 28f1 00000000 		.space	15
 1107      00000000 
 1107      00000000 
 1107      000000
 1108 2900 2000142C 		.ascii	" \000\024,\000\000\000\000\000\000\025\3748\003\331"
 1108      00000000 
 1108      000015FC 
 1108      3803D9
 1109 290f 02D90200 		.ascii	"\002\331\002\000\000\000\000\000\000\000\000\000\000"
 1109      00000000 
 1109      00000000 
 1109      00
 1110 291c 00000000 		.ascii	"\000\000\000\000\000\000\000\000\000\000\000\000bT\025"
 1110      00000000 
 1110      00000000 
 1110      625415
 1111 292b 61205715 		.ascii	"a W\025a\000"
 1111      6100
 1112 2931 00000000 		.space	15
 1112      00000000 
 1112      00000000 
 1112      000000
 1113 2940 2000152C 		.ascii	" \000\025,\000\000\000\000\000\000\025\374\317\002\331"
 1113      00000000 
 1113      000015FC 
 1113      CF02D9
 1114 294f 02D90200 		.ascii	"\002\331\002\000\000\000\000\000\000\000\000\000\000"
 1114      00000000 
 1114      00000000 
 1114      00
 1115 295c 00000000 		.ascii	"\000\000\000\000\000\000\000\000\000\000\000\000\243"
 1115      00000000 
 1115      00000000 
 1115      A3
 1116 2969 73156161 		.ascii	"s\025aav\025a\000"
 1116      76156100 
 1117 2971 00000000 		.space	15
 1117      00000000 
 1117      00000000 
 1117      000000
 1118 2980 2000162C 		.ascii	" \000\026,\000\000\000\000\000\000\025\374k\002\331"
 1118      00000000 
 1118      000015FC 
 1118      6B02D9
 1119 298f 02D90200 		.ascii	"\002\331\002\000\000\000\000\000\000\000\000\000\000"
 1119      00000000 
 1119      00000000 
 1119      00
 1120 299c 00000000 		.ascii	"\000\000\000\000\000\000\000\000\000\000\000\000\344"
 1120      00000000 
ARM GAS  /run/user/1000/cc4cbKPI.s 			page 69


 1120      00000000 
 1120      E4
 1121 29a9 921561A2 		.ascii	"\222\025a\242\225\025a\000"
 1121      95156100 
 1122 29b1 00000000 		.space	15
 1122      00000000 
 1122      00000000 
 1122      000000
 1123 29c0 2000172C 		.ascii	" \000\027,\000\000\000\000\000\000\025\374+\002\331"
 1123      00000000 
 1123      000015FC 
 1123      2B02D9
 1124 29cf 02D90200 		.ascii	"\002\331\002\000\000\000\000\000\000\000\000\000\000"
 1124      00000000 
 1124      00000000 
 1124      00
 1125 29dc 00000000 		.ascii	"\000\000\000\000\000\000\000\000\000\000\000\000%\262"
 1125      00000000 
 1125      00000000 
 1125      25B2
 1126 29ea 156102B5 		.ascii	"\025a\002\265\025a\000"
 1126      156100
 1127 29f1 00000000 		.space	15
 1127      00000000 
 1127      00000000 
 1127      000000
 1128 2a00 2000182C 		.ascii	" \000\030,\000\000\000\000\000\000\025\374\354\001\331"
 1128      00000000 
 1128      000015FC 
 1128      EC01D9
 1129 2a0f 02D90200 		.ascii	"\002\331\002\000\000\000\000\000\000\000\000\000\000"
 1129      00000000 
 1129      00000000 
 1129      00
 1130 2a1c 00000000 		.ascii	"\000\000\000\000\000\000\000\000\000\000\000\000\205"
 1130      00000000 
 1130      00000000 
 1130      85
 1131 2a29 D1156162 		.ascii	"\321\025ab\324\025a\000"
 1131      D4156100 
 1132 2a31 00000000 		.space	15
 1132      00000000 
 1132      00000000 
 1132      000000
 1133 2a40 2000192C 		.ascii	" \000\031,\000\000\000\000\000\000\025\374\272\001\331"
 1133      00000000 
 1133      000015FC 
 1133      BA01D9
 1134 2a4f 02D90200 		.ascii	"\002\331\002\000\000\000\000\000\000\000\000\000\000"
 1134      00000000 
 1134      00000000 
 1134      00
 1135 2a5c 00000000 		.ascii	"\000\000\000\000\000\000\000\000\000\000\000\000\211"
 1135      00000000 
 1135      00000000 
 1135      89
 1136 2a69 F0156166 		.ascii	"\360\025af\363\025a\000"
ARM GAS  /run/user/1000/cc4cbKPI.s 			page 70


 1136      F3156100 
 1137 2a71 00000000 		.space	15
 1137      00000000 
 1137      00000000 
 1137      000000
 1138 2a80 20001A2C 		.ascii	" \000\032,\000\000\000\000\000\000\025\374w\001\331"
 1138      00000000 
 1138      000015FC 
 1138      7701D9
 1139 2a8f 02D90200 		.ascii	"\002\331\002\000\000\000\000\000\000\000\000\000\000"
 1139      00000000 
 1139      00000000 
 1139      00
 1140 2a9c 00000000 		.ascii	"\000\000\000\000\000\000\000\000\000\000\000\000*/\026"
 1140      00000000 
 1140      00000000 
 1140      2A2F16
 1141 2aab 61E83116 		.ascii	"a\3501\026a\000"
 1141      6100
 1142 2ab1 00000000 		.space	15
 1142      00000000 
 1142      00000000 
 1142      000000
 1143 2ac0 20001B2C 		.ascii	" \000\033,\000\000\000\000\000\000\025\374W\001\331"
 1143      00000000 
 1143      000015FC 
 1143      5701D9
 1144 2acf 02D90200 		.ascii	"\002\331\002\000\000\000\000\000\000\000\000\000\000"
 1144      00000000 
 1144      00000000 
 1144      00
 1145 2adc 00000000 		.ascii	"\000\000\000\000\000\000\000\000\000\000\000\000kN\026"
 1145      00000000 
 1145      00000000 
 1145      6B4E16
 1146 2aeb 61295116 		.ascii	"a)Q\026a\000"
 1146      6100
 1147 2af1 00000000 		.space	15
 1147      00000000 
 1147      00000000 
 1147      000000
 1148 2b00 20001C2C 		.ascii	" \000\034,\000\000\000\000\000\000\025\374\027\001\331"
 1148      00000000 
 1148      000015FC 
 1148      1701D9
 1149 2b0f 02D90200 		.ascii	"\002\331\002\000\000\000\000\000\000\000\000\000\000"
 1149      00000000 
 1149      00000000 
 1149      00
 1150 2b1c 00000000 		.ascii	"\000\000\000\000\000\000\000\000\000\000\000\000Q\313"
 1150      00000000 
 1150      00000000 
 1150      51CB
 1151 2b2a 16610FCE 		.ascii	"\026a\017\316\026a\000"
 1151      166100
 1152 2b31 00000000 		.space	15
 1152      00000000 
ARM GAS  /run/user/1000/cc4cbKPI.s 			page 71


 1152      00000000 
 1152      000000
 1153 2b40 20001D2C 		.ascii	" \000\035,\000\000\000\000\000\000\025\374\367\000\331"
 1153      00000000 
 1153      000015FC 
 1153      F700D9
 1154 2b4f 02D90200 		.ascii	"\002\331\002\000\000\000\000\000\000\000\000\000\000"
 1154      00000000 
 1154      00000000 
 1154      00
 1155 2b5c 00000000 		.ascii	"\000\000\000\000\000\000\000\000\000\000\000\000\031"
 1155      00000000 
 1155      00000000 
 1155      19
 1156 2b69 A61761D7 		.ascii	"\246\027a\327\250\027a\000"
 1156      A8176100 
 1157 2b71 00000000 		.space	15
 1157      00000000 
 1157      00000000 
 1157      000000
 1158 2b80 20001E2C 		.ascii	" \000\036,\000\000\000\000\000\000\025\374\310\002\331"
 1158      00000000 
 1158      000015FC 
 1158      C802D9
 1159 2b8f 02D90200 		.ascii	"\002\331\002\000\000\000\000\000\000\000\000\000\000"
 1159      00000000 
 1159      00000000 
 1159      00
 1160 2b9c 00000000 		.ascii	"\000\000\000\000\000\000\000\000\000\000\000\000\005"
 1160      00000000 
 1160      00000000 
 1160      05
 1161 2ba9 0B1C61E2 		.ascii	"\013\034a\342\015\034a\000"
 1161      0D1C6100 
 1162 2bb1 00000000 		.space	15
 1162      00000000 
 1162      00000000 
 1162      000000
 1163 2bc0 20001F2C 		.ascii	" \000\037,\000\000\000\000\000\000h\374(\005\331\002"
 1163      00000000 
 1163      000068FC 
 1163      2805D902 
 1164 2bd0 D9020000 		.ascii	"\331\002\000\000\000\000\000\000\000\000\000\000\000"
 1164      00000000 
 1164      00000000 
 1164      00
 1165 2bdd 00000000 		.ascii	"\000\000\000\000\000\000\000\000\000\000\000d*\034a"
 1165      00000000 
 1165      00000064 
 1165      2A1C61
 1166 2bec 232D1C61 		.ascii	"#-\034a\000"
 1166      00
 1167 2bf1 00000000 		.space	15
 1167      00000000 
 1167      00000000 
 1167      000000
 1168 2c00 2000202C 		.ascii	" \000 ,\000\000\000\000\000\000\222\375E\011\331\002"
ARM GAS  /run/user/1000/cc4cbKPI.s 			page 72


 1168      00000000 
 1168      000092FD 
 1168      4509D902 
 1169 2c10 D9020000 		.ascii	"\331\002\000\000\000\000\000\000\000\000\000\000\000"
 1169      00000000 
 1169      00000000 
 1169      00
 1170 2c1d 00000000 		.ascii	"\000\000\000\000\000\000\000\000\000\000\000\246I\034"
 1170      00000000 
 1170      000000A6 
 1170      491C
 1171 2c2b 61644C1C 		.ascii	"adL\034a\000"
 1171      6100
 1172 2c31 00000000 		.space	15
 1172      00000000 
 1172      00000000 
 1172      000000
 1173 2c40 2000212C 		.ascii	" \000!,\000\000\000\000\000\000\305\376\221,\331\002"
 1173      00000000 
 1173      0000C5FE 
 1173      912CD902 
 1174 2c50 D9020000 		.ascii	"\331\002\000\000\000\000\000\000\000\000\000\000\000"
 1174      00000000 
 1174      00000000 
 1174      00
 1175 2c5d 00000000 		.ascii	"\000\000\000\000\000\000\000\000\000\000\000\005i\034"
 1175      00000000 
 1175      00000005 
 1175      691C
 1176 2c6b 61C46B1C 		.ascii	"a\304k\034a\000"
 1176      6100
 1177 2c71 00000000 		.space	15
 1177      00000000 
 1177      00000000 
 1177      000000
 1178 2c80 2000222C 		.ascii	" \000\",\000\000\000\000\000\000\316\377\320G\331\002"
 1178      00000000 
 1178      0000CEFF 
 1178      D047D902 
 1179 2c90 D9020000 		.ascii	"\331\002\000\000\000\000\000\000\000\000\000\000\000"
 1179      00000000 
 1179      00000000 
 1179      00
 1180 2c9d 00000000 		.ascii	"\000\000\000\000\000\000\000\000\000\000\000(\210\034"
 1180      00000000 
 1180      00000028 
 1180      881C
 1181 2cab 61058B1C 		.ascii	"a\005\213\034a\000"
 1181      6100
 1182 2cb1 00000000 		.space	15
 1182      00000000 
 1182      00000000 
 1182      000000
 1183 2cc0 2000232C 		.ascii	" \000#,\000\000\000\000\000\000\262\000\354g\331\002"
 1183      00000000 
 1183      0000B200 
 1183      EC67D902 
ARM GAS  /run/user/1000/cc4cbKPI.s 			page 73


 1184 2cd0 D9020000 		.ascii	"\331\002\000\000\000\000\000\000\000\000\000\000\000"
 1184      00000000 
 1184      00000000 
 1184      00
 1185 2cdd 00000000 		.ascii	"\000\000\000\000\000\000\000\000\000\000\000\210\247"
 1185      00000000 
 1185      00000088 
 1185      A7
 1186 2cea 1C6146AA 		.ascii	"\034aF\252\034a\000"
 1186      1C6100
 1187 2cf1 00000000 		.space	15
 1187      00000000 
 1187      00000000 
 1187      000000
 1188 2d00 2000242C 		.ascii	" \000$,\000\000\000\000\000\000\217\001\377\177\331"
 1188      00000000 
 1188      00008F01 
 1188      FF7FD9
 1189 2d0f 02D90200 		.ascii	"\002\331\002\000\000\000\000\000\000\000\000\000\000"
 1189      00000000 
 1189      00000000 
 1189      00
 1190 2d1c 00000000 		.ascii	"\000\000\000\000\000\000\000\000\000\000\000\000\214"
 1190      00000000 
 1190      00000000 
 1190      8C
 1191 2d29 C61C6168 		.ascii	"\306\034ah\311\034a\000"
 1191      C91C6100 
 1192 2d31 00000000 		.space	15
 1192      00000000 
 1192      00000000 
 1192      000000
 1193 2d40 2000252C 		.ascii	" \000%,\000\000\000\000\000\000@\002\377\177\331\002"
 1193      00000000 
 1193      00004002 
 1193      FF7FD902 
 1194 2d50 D9020000 		.ascii	"\331\002\000\000\000\000\000\000\000\000\000\000\000"
 1194      00000000 
 1194      00000000 
 1194      00
 1195 2d5d 00000000 		.ascii	"\000\000\000\000\000\000\000\000\000\000\000\315\345"
 1195      00000000 
 1195      000000CD 
 1195      E5
 1196 2d6a 1C61AAE8 		.ascii	"\034a\252\350\034a\000"
 1196      1C6100
 1197 2d71 00000000 		.space	15
 1197      00000000 
 1197      00000000 
 1197      000000
 1198 2d80 2000262C 		.ascii	" \000&,\000\000\000\000\000\000\310\002\377\177\331"
 1198      00000000 
 1198      0000C802 
 1198      FF7FD9
 1199 2d8f 02D90200 		.ascii	"\002\331\002\000\000\000\000\000\000\000\000\000\000"
 1199      00000000 
 1199      00000000 
ARM GAS  /run/user/1000/cc4cbKPI.s 			page 74


 1199      00
 1200 2d9c 00000000 		.ascii	"\000\000\000\000\000\000\000\000\000\000\000\000\016"
 1200      00000000 
 1200      00000000 
 1200      0E
 1201 2da9 051D61CC 		.ascii	"\005\035a\314\007\035a\000"
 1201      071D6100 
 1202 2db1 00000000 		.space	15
 1202      00000000 
 1202      00000000 
 1202      000000
 1203 2dc0 2000272C 		.ascii	" \000',\000\000\000\000\000\000:\003\377\177\331\002"
 1203      00000000 
 1203      00003A03 
 1203      FF7FD902 
 1204 2dd0 D9020000 		.ascii	"\331\002\000\000\000\000\000\000\000\000\000\000\000"
 1204      00000000 
 1204      00000000 
 1204      00
 1205 2ddd 00000000 		.ascii	"\000\000\000\000\000\000\000\000\000\000\000O$\035a"
 1205      00000000 
 1205      0000004F 
 1205      241D61
 1206 2dec 2C271D61 		.ascii	",'\035a\000"
 1206      00
 1207 2df1 00000000 		.space	15
 1207      00000000 
 1207      00000000 
 1207      000000
 1208 2e00 2000282C 		.ascii	" \000(,\000\000\000\000\000\000\226\003\377\177\331"
 1208      00000000 
 1208      00009603 
 1208      FF7FD9
 1209 2e0f 02D90200 		.ascii	"\002\331\002\000\000\000\000\000\000\000\000\000\000"
 1209      00000000 
 1209      00000000 
 1209      00
 1210 2e1c 00000000 		.ascii	"\000\000\000\000\000\000\000\000\000\000\000\000\220"
 1210      00000000 
 1210      00000000 
 1210      90
 1211 2e29 431D616D 		.ascii	"C\035amF\035a\000"
 1211      461D6100 
 1212 2e31 00000000 		.space	15
 1212      00000000 
 1212      00000000 
 1212      000000
 1213 2e40 2000292C 		.ascii	" \000),\000\000\000\000\000\000\332\003\377\177\331"
 1213      00000000 
 1213      0000DA03 
 1213      FF7FD9
 1214 2e4f 02D90200 		.ascii	"\002\331\002\000\000\000\000\000\000\000\000\000\000"
 1214      00000000 
 1214      00000000 
 1214      00
 1215 2e5c 00000000 		.ascii	"\000\000\000\000\000\000\000\000\000\000\000\000\016"
 1215      00000000 
ARM GAS  /run/user/1000/cc4cbKPI.s 			page 75


 1215      00000000 
 1215      0E
 1216 2e69 631D61EB 		.ascii	"c\035a\353e\035a\000"
 1216      651D6100 
 1217 2e71 00000000 		.space	15
 1217      00000000 
 1217      00000000 
 1217      000000
 1218 2e80 20002A2C 		.ascii	" \000*,\000\000\000\000\000\000\020\004\377\177\331"
 1218      00000000 
 1218      00001004 
 1218      FF7FD9
 1219 2e8f 02D90200 		.ascii	"\002\331\002\000\000\000\000\000\000\000\000\000\000"
 1219      00000000 
 1219      00000000 
 1219      00
 1220 2e9c 00000000 		.ascii	"\000\000\000\000\000\000\000\000\000\000\000\000O\202"
 1220      00000000 
 1220      00000000 
 1220      4F82
 1221 2eaa 1D610E85 		.ascii	"\035a\016\205\035a\000"
 1221      1D6100
 1222 2eb1 00000000 		.space	15
 1222      00000000 
 1222      00000000 
 1222      000000
 1223 2ec0 20002B2C 		.ascii	" \000+,\000\000\000\000\000\000;\004\377\177\331\002"
 1223      00000000 
 1223      00003B04 
 1223      FF7FD902 
 1224 2ed0 D9020000 		.ascii	"\331\002\000\000\000\000\000\000\000\000\000\000\000"
 1224      00000000 
 1224      00000000 
 1224      00
 1225 2edd 00000000 		.ascii	"\000\000\000\000\000\000\000\000\000\000\000T\241\035"
 1225      00000000 
 1225      00000054 
 1225      A11D
 1226 2eeb 61C9A41D 		.ascii	"a\311\244\035a\000"
 1226      6100
 1227 2ef1 00000000 		.space	15
 1227      00000000 
 1227      00000000 
 1227      000000
 1228 2f00 20002C2C 		.ascii	" \000,,\000\000\000\000\000\000y\004\377\177\331\002"
 1228      00000000 
 1228      00007904 
 1228      FF7FD902 
 1229 2f10 D9020000 		.ascii	"\331\002\000\000\000\000\000\000\000\000\000\000\000"
 1229      00000000 
 1229      00000000 
 1229      00
 1230 2f1d 00000000 		.ascii	"\000\000\000\000\000\000\000\000\000\000\000\326\337"
 1230      00000000 
 1230      000000D6 
 1230      DF
 1231 2f2a 1D6194E2 		.ascii	"\035a\224\342\035a\000"
ARM GAS  /run/user/1000/cc4cbKPI.s 			page 76


 1231      1D6100
 1232 2f31 00000000 		.space	15
 1232      00000000 
 1232      00000000 
 1232      000000
 1233 2f40 20002D2C 		.ascii	" \000-,\000\000\000\000\000\000\234\004\377\177\331"
 1233      00000000 
 1233      00009C04 
 1233      FF7FD9
 1234 2f4f 02D90200 		.ascii	"\002\331\002\000\000\000\000\000\000\000\000\000\000"
 1234      00000000 
 1234      00000000 
 1234      00
 1235 2f5c 00000000 		.ascii	"\000\000\000\000\000\000\000\000\000\000\000\000w\036"
 1235      00000000 
 1235      00000000 
 1235      771E
 1236 2f6a 1E615421 		.ascii	"\036aT!\036a\000"
 1236      1E6100
 1237 2f71 00000000 		.space	15
 1237      00000000 
 1237      00000000 
 1237      000000
 1238 2f80 20002E2C 		.ascii	" \000.,\000\000\000\000\000\000\334\004\377\177\331"
 1238      00000000 
 1238      0000DC04 
 1238      FF7FD9
 1239 2f8f 02D90200 		.ascii	"\002\331\002\000\000\000\000\000\000\000\000\000\000"
 1239      00000000 
 1239      00000000 
 1239      00
 1240 2f9c 00000000 		.ascii	"\000\000\000\000\000\000\000\000\000\000\000\000a\030"
 1240      00000000 
 1240      00000000 
 1240      6118
 1241 2faa 1F61201B 		.ascii	"\037a \033\037a\000"
 1241      1F6100
 1242 2fb1 00000000 		.space	15
 1242      00000000 
 1242      00000000 
 1242      000000
 1243 2fc0 20002F2C 		.ascii	" \000/,\000\000\000\000\000\000\334\004bT\331\002\331"
 1243      00000000 
 1243      0000DC04 
 1243      6254D902 
 1243      D9
 1244 2fd1 02000000 		.ascii	"\002\000\000\000\000\000\000\000\000\000\000\000\000"
 1244      00000000 
 1244      00000000 
 1244      00
 1245 2fde 00000000 		.ascii	"\000\000\000\000\000\000\000\000\000\000\2047\037a\236"
 1245      00000000 
 1245      00008437 
 1245      1F619E
 1246 2fed 3A1F6100 		.ascii	":\037a\000"
 1247 2ff1 00000000 		.space	15
 1247      00000000 
ARM GAS  /run/user/1000/cc4cbKPI.s 			page 77


 1247      00000000 
 1247      000000
 1248 3000 2000302C 		.ascii	" \0000,\000\000\000\000\000\000\334\004\330\033\331"
 1248      00000000 
 1248      0000DC04 
 1248      D81BD9
 1249 300f 02D90200 		.ascii	"\002\331\002\000\000\000\000\000\000\000\000\000\000"
 1249      00000000 
 1249      00000000 
 1249      00
 1250 301c 00000000 		.ascii	"\000\000\000\000\000\000\000\000\000\000\000\000\343"
 1250      00000000 
 1250      00000000 
 1250      E3
 1251 3029 561F61C0 		.ascii	"V\037a\300Y\037a\000"
 1251      591F6100 
 1252 3031 00000000 		.space	15
 1252      00000000 
 1252      00000000 
 1252      000000
 1253 3040 2000312C 		.ascii	" \0001,\000\000\000\000\000\000\377\003!\376\331\002"
 1253      00000000 
 1253      0000FF03 
 1253      21FED902 
 1254 3050 D9020000 		.ascii	"\331\002\000\000\000\000\000\000\000\000\000\000\000"
 1254      00000000 
 1254      00000000 
 1254      00
 1255 305d 00000000 		.ascii	"\000\000\000\000\000\000\000\000\000\000\000\006v\037"
 1255      00000000 
 1255      00000006 
 1255      761F
 1256 306b 61E3781F 		.ascii	"a\343x\037a\000"
 1256      6100
 1257 3071 00000000 		.space	15
 1257      00000000 
 1257      00000000 
 1257      000000
 1258 3080 2000322C 		.ascii	" \0002,\000\000\000\000\000\000\242\0034\377\331\002"
 1258      00000000 
 1258      0000A203 
 1258      34FFD902 
 1259 3090 D9020000 		.ascii	"\331\002\000\000\000\000\000\000\000\000\000\000\000"
 1259      00000000 
 1259      00000000 
 1259      00
 1260 309d 00000000 		.ascii	"\000\000\000\000\000\000\000\000\000\000\000f\225\037"
 1260      00000000 
 1260      00000066 
 1260      951F
 1261 30ab 6143981F 		.ascii	"aC\230\037a\000"
 1261      6100
 1262 30b1 00000000 		.space	15
 1262      00000000 
 1262      00000000 
 1262      000000
 1263 30c0 2000332C 		.ascii	" \0003,\000\000\000\000\000\000Y\003\256\376\331\002"
ARM GAS  /run/user/1000/cc4cbKPI.s 			page 78


 1263      00000000 
 1263      00005903 
 1263      AEFED902 
 1264 30d0 D9020000 		.ascii	"\331\002\000\000\000\000\000\000\000\000\000\000\000"
 1264      00000000 
 1264      00000000 
 1264      00
 1265 30dd 00000000 		.ascii	"\000\000\000\000\000\000\000\000\000\000\000\305\264"
 1265      00000000 
 1265      000000C5 
 1265      B4
 1266 30ea 1F61A2B7 		.ascii	"\037a\242\267\037a\000"
 1266      1F6100
 1267 30f1 00000000 		.space	15
 1267      00000000 
 1267      00000000 
 1267      000000
 1268 3100 2000342C 		.ascii	" \0004,\000\000\000\000\000\000\037\003B\376\331\002"
 1268      00000000 
 1268      00001F03 
 1268      42FED902 
 1269 3110 D9020000 		.ascii	"\331\002\000\000\000\000\000\000\000\000\000\000\000"
 1269      00000000 
 1269      00000000 
 1269      00
 1270 311d 00000000 		.ascii	"\000\000\000\000\000\000\000\000\000\000\000%\324\037"
 1270      00000000 
 1270      00000025 
 1270      D41F
 1271 312b 6102D71F 		.ascii	"a\002\327\037a\000"
 1271      6100
 1272 3131 00000000 		.space	15
 1272      00000000 
 1272      00000000 
 1272      000000
 1273 3140 2000352C 		.ascii	" \0005,\000\000\000\000\000\000\360\002\366\375\331"
 1273      00000000 
 1273      0000F002 
 1273      F6FDD9
 1274 314f 02D90200 		.ascii	"\002\331\002\000\000\000\000\000\000\000\000\000\000"
 1274      00000000 
 1274      00000000 
 1274      00
 1275 315c 00000000 		.ascii	"\000\000\000\000\000\000\000\000\000\000\000\000\013"
 1275      00000000 
 1275      00000000 
 1275      0B
 1276 3169 F31F61E8 		.ascii	"\363\037a\350\365\037a\000"
 1276      F51F6100 
 1277 3171 00000000 		.space	15
 1277      00000000 
 1277      00000000 
 1277      000000
 1278 3180 2000362C 		.ascii	" \0006,\000\000\000\000\000\000\360\002\264\375\331"
 1278      00000000 
 1278      0000F002 
 1278      B4FDD9
ARM GAS  /run/user/1000/cc4cbKPI.s 			page 79


 1279 318f 02D90200 		.ascii	"\002\331\002\000\000\000\000\000\000\000\000\000\000"
 1279      00000000 
 1279      00000000 
 1279      00
 1280 319c 00000000 		.ascii	"\000\000\000\000\000\000\000\000\000\000\000\000L\022"
 1280      00000000 
 1280      00000000 
 1280      4C12
 1281 31aa 20612915 		.ascii	" a)\025 a\000"
 1281      206100
 1282 31b1 00000000 		.space	15
 1282      00000000 
 1282      00000000 
 1282      000000
 1283 31c0 2000372C 		.ascii	" \0007,\000\000\000\000\000\000\263\002\200\375\331"
 1283      00000000 
 1283      0000B302 
 1283      80FDD9
 1284 31cf 02D90200 		.ascii	"\002\331\002\000\000\000\000\000\000\000\000\000\000"
 1284      00000000 
 1284      00000000 
 1284      00
 1285 31dc 00000000 		.ascii	"\000\000\000\000\000\000\000\000\000\000\000\000\253"
 1285      00000000 
 1285      00000000 
 1285      AB
 1286 31e9 31206188 		.ascii	"1 a\2104 a\000"
 1286      34206100 
 1287 31f1 00000000 		.space	15
 1287      00000000 
 1287      00000000 
 1287      000000
 1288 3200 2000382C 		.ascii	" \0008,\000\000\000\000\000\000\206\0024\375\331\002"
 1288      00000000 
 1288      00008602 
 1288      34FDD902 
 1289 3210 D9020000 		.ascii	"\331\002\000\000\000\000\000\000\000\000\000\000\000"
 1289      00000000 
 1289      00000000 
 1289      00
 1290 321d 00000000 		.ascii	"\000\000\000\000\000\000\000\000\000\000\000.p a\354"
 1290      00000000 
 1290      0000002E 
 1290      702061EC 
 1291 322d 72206100 		.ascii	"r a\000"
 1292 3231 00000000 		.space	15
 1292      00000000 
 1292      00000000 
 1292      000000
 1293 3240 2000392C 		.ascii	" \0009,\000\000\000\000\000\000\206\002\031\375\331"
 1293      00000000 
 1293      00008602 
 1293      19FDD9
 1294 324f 02D90200 		.ascii	"\002\331\002\000\000\000\000\000\000\000\000\000\000"
 1294      00000000 
 1294      00000000 
 1294      00
ARM GAS  /run/user/1000/cc4cbKPI.s 			page 80


 1295 325c 00000000 		.ascii	"\000\000\000\000\000\000\000\000\000\000\000\000o\217"
 1295      00000000 
 1295      00000000 
 1295      6F8F
 1296 326a 20612D92 		.ascii	" a-\222 a\000"
 1296      206100
 1297 3271 00000000 		.space	15
 1297      00000000 
 1297      00000000 
 1297      000000
 1298 3280 20003A2C 		.ascii	" \000:,\000\000\000\000\000\000P\002\031\375\331\002"
 1298      00000000 
 1298      00005002 
 1298      19FDD902 
 1299 3290 D9020000 		.ascii	"\331\002\000\000\000\000\000\000\000\000\000\000\000"
 1299      00000000 
 1299      00000000 
 1299      00
 1300 329d 00000000 		.ascii	"\000\000\000\000\000\000\000\000\000\000\0006\014!a"
 1300      00000000 
 1300      00000036 
 1300      0C2161
 1301 32ac 130F2161 		.ascii	"\023\017!a\000"
 1301      00
 1302 32b1 00000000 		.space	15
 1302      00000000 
 1302      00000000 
 1302      000000
 1303 32c0 20003B2C 		.ascii	" \000;,\000\000\000\000\000\000P\002\320\374\331\002"
 1303      00000000 
 1303      00005002 
 1303      D0FCD902 
 1304 32d0 D9020000 		.ascii	"\331\002\000\000\000\000\000\000\000\000\000\000\000"
 1304      00000000 
 1304      00000000 
 1304      00
 1305 32dd 00000000 		.ascii	"\000\000\000\000\000\000\000\000\000\000\000\226+!a"
 1305      00000000 
 1305      00000096 
 1305      2B2161
 1306 32ec 732E2161 		.ascii	"s.!a\000"
 1306      00
 1307 32f1 00000000 		.space	15
 1307      00000000 
 1307      00000000 
 1307      000000
 1308 3300 20003C2C 		.ascii	" \000<,\000\000\000\000\000\000P\002\267\374\331\002"
 1308      00000000 
 1308      00005002 
 1308      B7FCD902 
 1309 3310 D9020000 		.ascii	"\331\002\000\000\000\000\000\000\000\000\000\000\000"
 1309      00000000 
 1309      00000000 
 1309      00
 1310 331d 00000000 		.ascii	"\000\000\000\000\000\000\000\000\000\000\000\334\307"
 1310      00000000 
 1310      000000DC 
ARM GAS  /run/user/1000/cc4cbKPI.s 			page 81


 1310      C7
 1311 332a 2161B9CA 		.ascii	"!a\271\312!a\000"
 1311      216100
 1312 3331 00000000 		.space	15
 1312      00000000 
 1312      00000000 
 1312      000000
 1313 3340 20003D2C 		.ascii	" \000=,\000\000\000\000\000\000&\002\267\374\331\002"
 1313      00000000 
 1313      00002602 
 1313      B7FCD902 
 1314 3350 D9020000 		.ascii	"\331\002\000\000\000\000\000\000\000\000\000\000\000"
 1314      00000000 
 1314      00000000 
 1314      00
 1315 335d 00000000 		.ascii	"\000\000\000\000\000\000\000\000\000\000\000\201\203"
 1315      00000000 
 1315      00000081 
 1315      83
 1316 336a 22613F86 		.ascii	"\"a?\206\"a\000"
 1316      226100
 1317 3371 00000000 		.space	15
 1317      00000000 
 1317      00000000 
 1317      000000
 1318              		.text
 1319              	.Letext0:
 1320              		.file 3 "/nix/store/mkvk7zrbvp1s74g92kjd4qx60nmclfn3-gcc-arm-embedded-12.3.rel1/arm-none-eabi/incl
 1321              		.file 4 "/nix/store/mkvk7zrbvp1s74g92kjd4qx60nmclfn3-gcc-arm-embedded-12.3.rel1/arm-none-eabi/incl
 1322              		.file 5 "Drivers/STM32F1xx_HAL_Driver/Inc/stm32f1xx_hal_def.h"
 1323              		.file 6 "Drivers/STM32F1xx_HAL_Driver/Inc/stm32f1xx_hal_rcc.h"
 1324              		.file 7 "Drivers/STM32F1xx_HAL_Driver/Inc/stm32f1xx_hal_rcc_ex.h"
 1325              		.file 8 "Middlewares/ST/STM32_USB_Device_Library/Core/Inc/usbd_def.h"
 1326              		.file 9 "Middlewares/ST/STM32_USB_Device_Library/Class/HID/Inc/usbd_hid.h"
 1327              		.file 10 "USB_DEVICE/App/usb_device.h"
 1328              		.file 11 "Core/Inc/gpio.h"
 1329              		.file 12 "<built-in>"
 1330              		.file 13 "Drivers/STM32F1xx_HAL_Driver/Inc/stm32f1xx_hal.h"
ARM GAS  /run/user/1000/cc4cbKPI.s 			page 82

